cnumpy.core.multiarray
_reconstruct
p0
(cnumpy
ndarray
p1
(I0
tp2
S'b'
p3
tp4
Rp5
(I1
(I60
I140
tp6
cnumpy
dtype
p7
(S'O8'
p8
I0
I1
tp9
Rp10
(I3
S'|'
p11
NNNI-1
I-1
I63
tp12
bI00
(lp13
I0
aI0
aI0
aI0
aI0
aI0
aI0
aI0
aI0
aI0
aI0
aI0
aI0
aI0
aI0
aI0
aI0
aI0
aI0
aI0
aI0
aI0
aI0
aI0
aI0
aI0
aI0
aI0
aI0
aI0
aI0
aI0
aI0
aI0
aI0
aI0
aI0
aI0
aI0
aI0
aI0
aI0
aI0
aI0
aI0
aI0
aI0
aI0
aI0
aI0
aI0
aI0
aI0
aI0
aI0
aI0
aI0
aI0
aI0
aI0
aI0
aI0
aI0
aI0
aI0
aI0
aI0
aI0
aI0
aI0
aI0
aI0
aI0
aI0
aI0
aI0
aI0
aI0
aI0
aI0
aI0
aI0
aI0
aI0
aI0
aI0
aI0
aI0
aI0
aI0
aI0
aI0
aI0
aI0
aI0
aI0
aI0
aI0
aI0
aI0
aI0
aI0
aI0
aI0
aI0
aI0
aI0
aI0
aI0
aI0
aI0
aI0
aI0
aI0
aI0
aI0
aI0
aI0
aI0
aI0
aI0
aI0
aI0
aI0
aI0
aI0
aI0
aI0
aI0
aI0
aI0
aI0
aI0
aI0
aI0
aI0
aI0
aI0
aI0
aI0
aI0
aI0
aI0
aI0
aI0
aI0
aI0
aI0
aI0
aI0
aI0
aI0
aI0
aI0
aI0
aI0
aI0
aI0
aI0
aI0
aI0
aI0
aI0
aI0
aI0
aI0
aI0
aI0
aI0
aI0
aI0
aI0
aI0
aI0
aI0
aI0
aI0
aI0
aI0
aI0
aI0
aI0
aI0
aI0
aI0
aI0
aI0
aI0
aI0
aI0
aI0
aI0
aI0
aI0
aI0
aI0
aI0
aI0
aI0
aI0
aI0
aI0
aI0
aI0
aI0
aI0
aI0
aI0
aI0
aI0
aI0
aI0
aI0
aI0
aI0
aI0
aI0
aI0
aI0
aI0
aI0
aI0
aI0
aI0
aI0
aI0
aI0
aI0
aI0
aI0
aI0
aI0
aI0
aI0
aI0
aI0
aI0
aI0
aI0
aI0
aI0
aI0
aI0
aI0
aI0
aI0
aI0
aI0
aI0
aI0
aI0
aI0
aI0
aI0
aI0
aI0
aI0
aI0
aI0
aI0
aI0
aI0
aI0
aI0
aI0
aI0
aI0
aI0
aI0
aI0
aI0
aI0
aI0
aI0
aI0
aI0
aI0
aI0
aI0
aI0
aI0
aI0
aI0
aI0
aI0
aI0
aI0
aI0
aI0
aI0
aI0
aI0
aI0
aI0
aI0
aI0
aI0
aI0
aI0
aI0
aI0
aI0
aI0
aI0
aI0
aI0
aI0
aI0
aI0
aI0
aI0
aI0
aI0
aI0
aI0
aI0
aI0
aI0
aI0
aI0
aI0
aI0
aI0
aI0
aI0
aI0
a(lp14
I2
aI46
aF0.7
aF0.7
aF0.7557195
aa(lp15
I2
aI47
aF0.6913199999999999
aF0.7
aF0.785
aaI0
aI0
aI0
aI0
aI0
aI0
aI0
aI0
aI0
aI0
aI0
aI0
aI0
aI0
aI0
aI0
aI0
aI0
aI0
aI0
aI0
aI0
aI0
aI0
aI0
aI0
aI0
aI0
aI0
aI0
aI0
aI0
aI0
aI0
aI0
aI0
aI0
aI0
aI0
aI0
aI0
aI0
aI0
aI0
aI0
aI0
aI0
aI0
aI0
aI0
aI0
aI0
aI0
aI0
aI0
aI0
aI0
aI0
aI0
aI0
aI0
aI0
aI0
aI0
aI0
aI0
aI0
aI0
aI0
aI0
aI0
aI0
aI0
aI0
aI0
aI0
aI0
aI0
aI0
aI0
aI0
aI0
aI0
aI0
aI0
aI0
aI0
aI0
aI0
aI0
aI0
aI0
aI0
aI0
aI0
aI0
aI0
aI0
aI0
aI0
aI0
aI0
aI0
aI0
aI0
aI0
aI0
aI0
aI0
aI0
aI0
aI0
aI0
aI0
aI0
aI0
aI0
aI0
aI0
aI0
aI0
aI0
aI0
aI0
aI0
aI0
aI0
aI0
aI0
aI0
aI0
aI0
aI0
aI0
aI0
a(lp16
I3
aI43
aF0.7
aF0.7
aF0.5558585
aaI0
a(lp17
I3
aI45
aF0.68698
aF0.7
aF0.6582225
aa(lp18
I3
aI46
aF0.7
aF0.67823
aF0.785
aa(lp19
I3
aI47
aF0.6826399999999999
aF0.6913199999999999
aF0.785
aaI0
aI0
aI0
aI0
aI0
aI0
aI0
aI0
aI0
aI0
aI0
aI0
aI0
aI0
aI0
aI0
aI0
aI0
aI0
aI0
aI0
aI0
aI0
aI0
aI0
aI0
aI0
aI0
aI0
aI0
aI0
aI0
aI0
aI0
aI0
aI0
aI0
aI0
aI0
aI0
aI0
aI0
aI0
aI0
aI0
aI0
aI0
aI0
aI0
aI0
aI0
aI0
aI0
aI0
aI0
aI0
aI0
aI0
aI0
aI0
aI0
aI0
aI0
aI0
aI0
aI0
aI0
aI0
aI0
aI0
aI0
aI0
aI0
aI0
aI0
aI0
aI0
aI0
aI0
aI0
aI0
aI0
aI0
aI0
aI0
aI0
aI0
aI0
aI0
aI0
aI0
aI0
aI0
aI0
aI0
aI0
aI0
aI0
aI0
aI0
aI0
aI0
aI0
aI0
aI0
aI0
aI0
aI0
aI0
aI0
aI0
aI0
aI0
aI0
aI0
aI0
aI0
aI0
aI0
aI0
aI0
aI0
aI0
aI0
aI0
aI0
aI0
aI0
aI0
aI0
aI0
aI0
aI0
aI0
aI0
a(lp20
I4
aI43
aF0.7
aF0.68698
aF0.5655925
aaI0
a(lp21
I4
aI45
aF0.7
aF0.66087
aF0.7508525
aa(lp22
I4
aI46
aF0.68698
aF0.66955
aF0.775266
aaI0
a(lp23
I4
aI48
aF0.65653
aF0.7
aF0.785
aaI0
aI0
aI0
aI0
aI0
aI0
aI0
aI0
aI0
aI0
aI0
aI0
aI0
aI0
aI0
aI0
aI0
aI0
aI0
aI0
aI0
aI0
aI0
aI0
aI0
aI0
aI0
aI0
aI0
aI0
aI0
aI0
aI0
aI0
aI0
aI0
aI0
aI0
aI0
aI0
aI0
aI0
aI0
aI0
aI0
aI0
aI0
aI0
aI0
aI0
aI0
aI0
aI0
aI0
aI0
aI0
aI0
aI0
aI0
aI0
aI0
aI0
aI0
aI0
aI0
aI0
aI0
aI0
aI0
aI0
aI0
aI0
aI0
aI0
aI0
aI0
aI0
aI0
aI0
aI0
aI0
aI0
aI0
aI0
aI0
aI0
aI0
aI0
aI0
aI0
aI0
aI0
aI0
aI0
aI0
aI0
aI0
aI0
aI0
aI0
aI0
aI0
aI0
aI0
aI0
aI0
aI0
aI0
aI0
aI0
aI0
aI0
aI0
aI0
aI0
aI0
aI0
aI0
aI0
aI0
aI0
aI0
aI0
aI0
aI0
aI0
aI0
aI0
aI0
aI0
aI0
a(lp24
I5
aI40
aF0.7
aF0.7
aF0.35591900000000004
aa(lp25
I5
aI41
aF0.7
aF0.68698
aF0.443682
aaI0
a(lp26
I5
aI43
aF0.7
aF0.66087
aF0.619208
aaI0
a(lp27
I5
aI45
aF0.67823
aF0.67823
aF0.6582225
aa(lp28
I5
aI46
aF0.67823
aF0.66521
aF0.7605865
aa(lp29
I5
aI47
aF0.66955
aF0.66955
aF0.785
aa(lp30
I5
aI48
aF0.6478499999999999
aF0.6913199999999999
aF0.785
aaI0
aI0
aI0
aI0
aI0
aI0
aI0
aI0
aI0
aI0
aI0
aI0
aI0
aI0
aI0
aI0
aI0
aI0
aI0
aI0
aI0
aI0
aI0
aI0
aI0
aI0
aI0
aI0
aI0
aI0
aI0
aI0
aI0
aI0
aI0
aI0
aI0
aI0
aI0
aI0
aI0
aI0
aI0
aI0
aI0
aI0
aI0
aI0
aI0
aI0
aI0
aI0
aI0
aI0
aI0
aI0
aI0
aI0
aI0
aI0
aI0
aI0
aI0
aI0
aI0
aI0
aI0
aI0
aI0
aI0
aI0
aI0
aI0
aI0
aI0
aI0
aI0
aI0
aI0
aI0
aI0
aI0
aI0
aI0
aI0
aI0
aI0
aI0
aI0
aI0
aI0
aI0
aI0
aI0
aI0
aI0
aI0
aI0
aI0
aI0
aI0
aI0
aI0
aI0
aI0
aI0
aI0
aI0
aI0
aI0
aI0
aI0
aI0
aI0
aI0
aI0
aI0
aI0
aI0
aI0
aI0
aI0
aI0
aI0
aI0
aI0
aI0
aI0
aI0
aI0
a(lp31
I6
aI39
aF0.7
aF0.7
aF0.25355500000000003
aa(lp32
I6
aI40
aF0.7
aF0.68698
aF0.360786
aaI0
a(lp33
I6
aI42
aF0.7
aF0.6478499999999999
aF0.5704595
aaI0
aI0
aI0
a(lp34
I6
aI46
aF0.67823
aF0.6435099999999999
aF0.785
aa(lp35
I6
aI47
aF0.66087
aF0.66087
aF0.785
aa(lp36
I6
aI48
aF0.63476
aF0.68698
aF0.7557195
aaI0
aI0
aI0
aI0
aI0
aI0
aI0
aI0
aI0
aI0
aI0
aI0
aI0
aI0
aI0
aI0
aI0
aI0
aI0
aI0
aI0
aI0
aI0
aI0
aI0
aI0
aI0
aI0
aI0
aI0
aI0
aI0
aI0
aI0
aI0
aI0
aI0
aI0
aI0
aI0
aI0
aI0
aI0
aI0
aI0
aI0
aI0
aI0
aI0
aI0
aI0
aI0
aI0
aI0
aI0
aI0
aI0
aI0
aI0
aI0
aI0
aI0
aI0
aI0
aI0
aI0
aI0
aI0
aI0
aI0
aI0
aI0
aI0
aI0
aI0
aI0
aI0
aI0
aI0
aI0
aI0
aI0
aI0
aI0
aI0
aI0
aI0
aI0
aI0
aI0
aI0
aI0
aI0
aI0
aI0
aI0
aI0
aI0
aI0
aI0
aI0
aI0
aI0
aI0
aI0
aI0
aI0
aI0
aI0
aI0
aI0
aI0
aI0
aI0
aI0
aI0
aI0
aI0
aI0
aI0
aI0
aI0
aI0
aI0
aI0
aI0
aI0
aI0
aI0
a(lp37
I7
aI38
aF0.7
aF0.7
aF0.18526
aaI0
a(lp38
I7
aI40
aF0.7
aF0.66087
aF0.3949335
aa(lp39
I7
aI41
aF0.7
aF0.6478499999999999
aF0.4875635
aaI0
aI0
a(lp40
I7
aI44
aF0.67823
aF0.6391
aF0.6582225
aa(lp41
I7
aI45
aF0.66521
aF0.6521899999999999
aF0.6582225
aa(lp42
I7
aI46
aF0.66521
aF0.6435099999999999
aF0.7362515
aaI0
a(lp43
I7
aI48
aF0.63476
aF0.66955
aF0.775266
aa(lp44
I7
aI49
aF0.62174
aF0.67823
aF0.785
aaI0
aI0
aI0
aI0
aI0
aI0
aI0
aI0
aI0
aI0
aI0
aI0
aI0
aI0
aI0
aI0
aI0
aI0
aI0
aI0
aI0
aI0
aI0
aI0
aI0
aI0
aI0
aI0
aI0
aI0
aI0
aI0
aI0
aI0
aI0
aI0
aI0
aI0
aI0
aI0
aI0
aI0
aI0
aI0
aI0
aI0
aI0
aI0
aI0
aI0
aI0
aI0
aI0
aI0
aI0
aI0
aI0
aI0
aI0
aI0
aI0
aI0
aI0
aI0
aI0
aI0
aI0
aI0
aI0
aI0
aI0
aI0
aI0
aI0
aI0
aI0
aI0
aI0
aI0
aI0
aI0
aI0
aI0
aI0
aI0
aI0
aI0
aI0
aI0
aI0
aI0
aI0
aI0
aI0
aI0
aI0
aI0
aI0
aI0
aI0
aI0
aI0
aI0
aI0
aI0
aI0
aI0
aI0
aI0
aI0
aI0
aI0
aI0
aI0
aI0
aI0
aI0
aI0
aI0
aI0
aI0
aI0
aI0
aI0
aI0
aI0
aI0
aI0
a(lp45
I8
aI38
aF0.7
aF0.68698
aF0.18526
aaI0
a(lp46
I8
aI40
aF0.7
aF0.6478499999999999
aF0.3949335
aa(lp47
I8
aI41
aF0.7
aF0.63042
aF0.5071100000000001
aaI0
a(lp48
I8
aI43
aF0.7
aF0.5999699999999999
aF0.6728235
aaI0
a(lp49
I8
aI45
aF0.63476
aF0.68698
aF0.536312
aa(lp50
I8
aI46
aF0.63476
aF0.67389
aF0.614341
aa(lp51
I8
aI47
aF0.63476
aF0.66087
aF0.706971
aaI0
a(lp52
I8
aI49
aF0.6130599999999999
aF0.66955
aF0.775266
aaI0
a(lp53
I8
aI51
aF0.57827
aF0.7
aF0.785
aaI0
aI0
aI0
aI0
aI0
aI0
aI0
aI0
aI0
aI0
aI0
aI0
aI0
aI0
aI0
aI0
aI0
aI0
aI0
aI0
aI0
aI0
aI0
aI0
aI0
aI0
aI0
aI0
aI0
aI0
aI0
aI0
aI0
aI0
aI0
aI0
aI0
aI0
aI0
aI0
aI0
aI0
aI0
aI0
aI0
aI0
aI0
aI0
aI0
aI0
aI0
aI0
aI0
aI0
aI0
aI0
aI0
aI0
aI0
aI0
aI0
aI0
aI0
aI0
aI0
aI0
aI0
aI0
aI0
aI0
aI0
aI0
aI0
aI0
aI0
aI0
aI0
aI0
aI0
aI0
aI0
aI0
aI0
aI0
aI0
aI0
aI0
aI0
aI0
aI0
aI0
aI0
aI0
aI0
aI0
aI0
aI0
aI0
aI0
aI0
aI0
aI0
aI0
aI0
aI0
aI0
aI0
aI0
aI0
aI0
aI0
aI0
aI0
aI0
aI0
aI0
aI0
aI0
aI0
aI0
aI0
aI0
aI0
aI0
aI0
a(lp54
I9
aI37
aF0.7
aF0.68698
aF0.11704350000000001
aaI0
a(lp55
I9
aI39
aF0.7
aF0.6478499999999999
aF0.32663850000000005
aaI0
aI0
a(lp56
I9
aI42
aF0.67823
aF0.63476
aF0.5071100000000001
aaI0
a(lp57
I9
aI44
aF0.7
aF0.5652499999999999
aF0.785
aa(lp58
I9
aI45
aF0.67389
aF0.6043799999999999
aF0.7216505000000001
aa(lp59
I9
aI46
aF0.66521
aF0.5999699999999999
aF0.785
aaI0
aI0
a(lp60
I9
aI49
aF0.57827
aF0.7
aF0.6582225
aa(lp61
I9
aI50
aF0.59129
aF0.66955
aF0.785
aaI0
aI0
aI0
aI0
aI0
aI0
aI0
aI0
aI0
aI0
aI0
aI0
aI0
aI0
aI0
aI0
aI0
aI0
aI0
aI0
aI0
aI0
aI0
aI0
aI0
aI0
aI0
aI0
aI0
aI0
aI0
aI0
aI0
aI0
aI0
aI0
aI0
aI0
aI0
aI0
aI0
aI0
aI0
aI0
aI0
aI0
aI0
aI0
aI0
aI0
aI0
aI0
aI0
aI0
aI0
aI0
aI0
aI0
aI0
aI0
aI0
aI0
aI0
aI0
aI0
aI0
aI0
aI0
aI0
aI0
aI0
aI0
aI0
aI0
aI0
aI0
aI0
aI0
aI0
aI0
aI0
aI0
aI0
aI0
aI0
aI0
aI0
aI0
aI0
aI0
aI0
aI0
aI0
aI0
aI0
aI0
aI0
aI0
aI0
aI0
aI0
aI0
aI0
aI0
aI0
aI0
aI0
aI0
aI0
aI0
aI0
aI0
aI0
aI0
aI0
aI0
aI0
aI0
aI0
aI0
aI0
aI0
aI0
aI0
aI0
a(lp62
I10
aI36
aF0.7
aF0.69566
aF0.0
aa(lp63
I10
aI37
aF0.7
aF0.67823
aF0.09263
aa(lp64
I10
aI38
aF0.7
aF0.6478499999999999
aF0.24868800000000002
aa(lp65
I10
aI39
aF0.66955
aF0.7
aF0.1365115
aaI0
aI0
a(lp66
I10
aI42
aF0.7
aF0.57827
aF0.614341
aa(lp67
I10
aI43
aF0.63476
aF0.68698
aF0.37052
aa(lp68
I10
aI44
aF0.7
aF0.54782
aF0.785
aa(lp69
I10
aI45
aF0.6826399999999999
aF0.5695899999999999
aF0.785
aa(lp70
I10
aI46
aF0.63476
aF0.6391
aF0.6436215
aa(lp71
I10
aI47
aF0.6435099999999999
aF0.6043799999999999
aF0.785
aa(lp72
I10
aI48
aF0.57827
aF0.7
aF0.5655925
aaI0
a(lp73
I10
aI50
aF0.58261
aF0.66521
aF0.7605865
aaI0
aI0
a(lp74
I10
aI53
aF0.5347999999999999
aF0.69566
aF0.785
aaI0
aI0
aI0
aI0
aI0
aI0
aI0
aI0
aI0
aI0
aI0
aI0
aI0
aI0
aI0
aI0
aI0
aI0
aI0
aI0
aI0
aI0
aI0
aI0
aI0
aI0
aI0
aI0
aI0
aI0
aI0
aI0
aI0
aI0
aI0
aI0
aI0
aI0
aI0
aI0
aI0
aI0
aI0
aI0
aI0
aI0
aI0
aI0
aI0
aI0
aI0
aI0
aI0
aI0
aI0
aI0
aI0
aI0
aI0
aI0
aI0
aI0
aI0
aI0
aI0
aI0
aI0
aI0
aI0
aI0
aI0
aI0
aI0
aI0
aI0
aI0
aI0
aI0
aI0
aI0
aI0
aI0
aI0
aI0
aI0
a(lp75
I10
aI139
aF0.0
aF0.0
aF0.0
aaI0
aI0
aI0
aI0
aI0
aI0
aI0
aI0
aI0
aI0
aI0
aI0
aI0
aI0
aI0
aI0
aI0
aI0
aI0
aI0
aI0
aI0
aI0
aI0
aI0
aI0
aI0
aI0
aI0
aI0
aI0
aI0
aI0
aI0
aI0
aI0
a(lp76
I11
aI36
aF0.7
aF0.6826399999999999
aF0.0
aa(lp77
I11
aI37
aF0.68698
aF0.69566
aF0.0
aaI0
aI0
aI0
aI0
a(lp78
I11
aI42
aF0.67389
aF0.6043799999999999
aF0.521711
aaI0
a(lp79
I11
aI44
aF0.7
aF0.5347999999999999
aF0.785
aa(lp80
I11
aI45
aF0.6826399999999999
aF0.5521599999999999
aF0.785
aa(lp81
I11
aI46
aF0.66521
aF0.5695899999999999
aF0.785
aa(lp82
I11
aI47
aF0.6435099999999999
aF0.58695
aF0.785
aaI0
aI0
aI0
a(lp83
I11
aI51
aF0.53914
aF0.7
aF0.6582225
aaI0
aI0
aI0
aI0
aI0
aI0
aI0
aI0
aI0
aI0
aI0
aI0
aI0
aI0
aI0
aI0
aI0
aI0
aI0
aI0
aI0
aI0
aI0
aI0
aI0
aI0
aI0
aI0
aI0
aI0
aI0
aI0
aI0
aI0
aI0
aI0
aI0
aI0
aI0
aI0
aI0
aI0
aI0
aI0
aI0
aI0
aI0
aI0
aI0
aI0
aI0
aI0
aI0
aI0
aI0
aI0
aI0
aI0
aI0
aI0
aI0
aI0
aI0
aI0
aI0
aI0
aI0
aI0
aI0
aI0
aI0
aI0
aI0
aI0
aI0
aI0
aI0
aI0
aI0
aI0
aI0
aI0
aI0
aI0
aI0
aI0
a(lp84
I11
aI138
aF0.0
aF0.008679999999999998
aF0.0633495
aaI0
aI0
aI0
aI0
aI0
aI0
aI0
aI0
aI0
aI0
aI0
aI0
aI0
aI0
aI0
aI0
aI0
aI0
aI0
aI0
aI0
aI0
aI0
aI0
aI0
aI0
aI0
aI0
aI0
aI0
aI0
aI0
aI0
aI0
aI0
aI0
aI0
a(lp85
I12
aI36
aF0.7
aF0.66955
aF0.0
aa(lp86
I12
aI37
aF0.68698
aF0.67823
aF0.014601
aa(lp87
I12
aI38
aF0.66521
aF0.7
aF0.0
aaI0
a(lp88
I12
aI40
aF0.6435099999999999
aF0.7
aF0.11704350000000001
aa(lp89
I12
aI41
aF0.63476
aF0.68698
aF0.2145405
aaI0
aI0
aI0
aI0
aI0
a(lp90
I12
aI47
aF0.6435099999999999
aF0.5739299999999999
aF0.785
aaI0
aI0
aI0
aI0
aI0
aI0
aI0
aI0
aI0
aI0
aI0
aI0
aI0
aI0
aI0
aI0
aI0
aI0
aI0
aI0
aI0
aI0
aI0
aI0
aI0
aI0
aI0
aI0
aI0
aI0
aI0
aI0
aI0
aI0
aI0
aI0
aI0
aI0
aI0
aI0
aI0
aI0
aI0
aI0
aI0
aI0
aI0
aI0
aI0
aI0
aI0
aI0
aI0
aI0
aI0
aI0
aI0
aI0
aI0
aI0
aI0
aI0
aI0
aI0
aI0
aI0
aI0
aI0
aI0
aI0
aI0
aI0
aI0
aI0
aI0
aI0
aI0
aI0
aI0
aI0
aI0
aI0
aI0
aI0
aI0
aI0
aI0
aI0
a(lp91
I12
aI136
aF0.0
aF0.0
aF0.2145405
aa(lp92
I12
aI137
aF0.0
aF0.021769999999999998
aF0.09263
aa(lp93
I12
aI138
aF0.017359999999999997
aF0.0
aF0.0
aaI0
aI0
aI0
aI0
aI0
aI0
aI0
aI0
aI0
aI0
aI0
aI0
aI0
aI0
aI0
aI0
aI0
aI0
aI0
aI0
aI0
aI0
aI0
aI0
aI0
aI0
aI0
aI0
aI0
aI0
aI0
aI0
aI0
aI0
aI0
aI0
aI0
a(lp94
I13
aI36
aF0.7
aF0.6521899999999999
aF0.004867
aaI0
a(lp95
I13
aI38
aF0.66087
aF0.6913199999999999
aF0.0
aaI0
aI0
aI0
aI0
aI0
a(lp96
I13
aI44
aF0.6521899999999999
aF0.58261
aF0.590006
aaI0
aI0
a(lp97
I13
aI47
aF0.58261
aF0.6521899999999999
aF0.536312
aaI0
aI0
a(lp98
I13
aI50
aF0.58695
aF0.6043799999999999
aF0.785
aaI0
a(lp99
I13
aI52
aF0.5521599999999999
aF0.63042
aF0.785
aaI0
a(lp100
I13
aI54
aF0.50869
aF0.66521
aF0.7605865
aaI0
aI0
a(lp101
I13
aI57
aF0.4522
aF0.7
aF0.785
aaI0
aI0
aI0
aI0
aI0
aI0
aI0
aI0
aI0
aI0
aI0
aI0
aI0
aI0
aI0
aI0
aI0
aI0
aI0
aI0
aI0
aI0
aI0
aI0
aI0
aI0
aI0
aI0
aI0
aI0
aI0
aI0
aI0
aI0
aI0
aI0
aI0
aI0
aI0
aI0
aI0
aI0
aI0
aI0
aI0
aI0
aI0
aI0
aI0
aI0
aI0
aI0
aI0
aI0
aI0
aI0
aI0
aI0
aI0
aI0
aI0
aI0
aI0
aI0
aI0
aI0
aI0
aI0
aI0
aI0
aI0
aI0
aI0
aI0
aI0
a(lp102
I13
aI133
aF0.0
aF0.0
aF0.41448
aa(lp103
I13
aI134
aF0.0
aF0.0
aF0.360786
aaI0
a(lp104
I13
aI136
aF0.0
aF0.03479
aF0.107231
aa(lp105
I13
aI137
aF0.0
aF0.04781
aF0.0
aaI0
aI0
aI0
aI0
aI0
aI0
aI0
aI0
aI0
aI0
aI0
aI0
aI0
aI0
aI0
aI0
aI0
aI0
aI0
aI0
aI0
aI0
aI0
aI0
aI0
aI0
aI0
aI0
aI0
aI0
aI0
aI0
aI0
aI0
aI0
aI0
aI0
aI0
a(lp106
I14
aI36
aF0.7
aF0.6391
aF0.004867
aaI0
a(lp107
I14
aI38
aF0.66087
aF0.67823
aF0.0
aaI0
a(lp108
I14
aI40
aF0.63476
aF0.68698
aF0.08776300000000001
aaI0
a(lp109
I14
aI42
aF0.67823
aF0.5521599999999999
aF0.5314450000000001
aaI0
aI0
a(lp110
I14
aI45
aF0.63476
aF0.58261
aF0.590006
aaI0
aI0
aI0
aI0
aI0
aI0
aI0
a(lp111
I14
aI53
aF0.5304599999999999
aF0.62608
aF0.785
aa(lp112
I14
aI54
aF0.50869
aF0.6435099999999999
aF0.785
aa(lp113
I14
aI55
aF0.48699
aF0.66521
aF0.7605865
aa(lp114
I14
aI56
aF0.4739
aF0.66955
aF0.785
aaI0
aI0
a(lp115
I14
aI59
aF0.42175
aF0.7
aF0.785
aaI0
aI0
aI0
aI0
aI0
aI0
aI0
aI0
aI0
aI0
aI0
aI0
aI0
aI0
aI0
aI0
aI0
aI0
aI0
aI0
aI0
aI0
aI0
aI0
aI0
aI0
aI0
aI0
aI0
aI0
aI0
aI0
aI0
aI0
aI0
aI0
aI0
aI0
aI0
aI0
aI0
aI0
aI0
aI0
aI0
aI0
aI0
aI0
aI0
aI0
aI0
aI0
aI0
aI0
aI0
aI0
aI0
aI0
aI0
aI0
aI0
aI0
aI0
aI0
aI0
aI0
aI0
a(lp116
I14
aI127
aF0.0
aF0.0
aF0.7605865
aa(lp117
I14
aI128
aF0.0
aF0.0
aF0.716705
aa(lp118
I14
aI129
aF0.0
aF0.0
aF0.6484885
aaI0
aI0
aI0
aI0
a(lp119
I14
aI134
aF0.0
aF0.03479
aF0.243821
aaI0
a(lp120
I14
aI136
aF0.0
aF0.06524
aF0.0
aa(lp121
I14
aI137
aF0.026109999999999998
aF0.013019999999999999
aF0.0
aaI0
aI0
aI0
aI0
aI0
aI0
aI0
aI0
aI0
aI0
aI0
aI0
aI0
aI0
aI0
aI0
aI0
aI0
aI0
aI0
aI0
aI0
aI0
aI0
aI0
aI0
aI0
aI0
aI0
aI0
aI0
aI0
aI0
aI0
aI0
aI0
aI0
aI0
a(lp122
I15
aI36
aF0.7
aF0.62608
aF0.0
aa(lp123
I15
aI37
aF0.6826399999999999
aF0.63476
aF0.0390145
aa(lp124
I15
aI38
aF0.66087
aF0.66521
aF0.0
aaI0
aI0
aI0
a(lp125
I15
aI42
aF0.65653
aF0.5739299999999999
aF0.443682
aaI0
a(lp126
I15
aI44
aF0.66521
aF0.52612
aF0.6582225
aa(lp127
I15
aI45
aF0.67823
aF0.49132999999999993
aF0.785
aa(lp128
I15
aI46
aF0.6174
aF0.58261
aF0.590006
aa(lp129
I15
aI47
aF0.57827
aF0.63476
aF0.5071100000000001
aaI0
a(lp130
I15
aI49
aF0.57827
aF0.6043799999999999
aF0.6582225
aa(lp131
I15
aI50
aF0.58261
aF0.5695899999999999
aF0.785
aaI0
aI0
aI0
a(lp132
I15
aI54
aF0.51303
aF0.62608
aF0.785
aaI0
aI0
a(lp133
I15
aI57
aF0.4522
aF0.66521
aF0.7605865
aa(lp134
I15
aI58
aF0.43910999999999994
aF0.66955
aF0.785
aaI0
a(lp135
I15
aI60
aF0.40431999999999996
aF0.68698
aF0.785
aaI0
aI0
aI0
aI0
aI0
aI0
aI0
aI0
aI0
aI0
aI0
aI0
aI0
aI0
aI0
aI0
aI0
aI0
aI0
aI0
aI0
aI0
aI0
aI0
aI0
aI0
aI0
aI0
aI0
aI0
aI0
aI0
aI0
aI0
aI0
aI0
aI0
aI0
aI0
aI0
aI0
aI0
aI0
aI0
aI0
aI0
aI0
aI0
aI0
aI0
aI0
aI0
aI0
aI0
aI0
aI0
aI0
aI0
aI0
aI0
aI0
aI0
aI0
aI0
a(lp136
I15
aI125
aF0.0
aF0.030449999999999994
aF0.785
aa(lp137
I15
aI126
aF0.013019999999999999
aF0.0
aF0.785
aaI0
aI0
aI0
a(lp138
I15
aI130
aF0.0
aF0.03479
aF0.4875635
aaI0
aI0
aI0
a(lp139
I15
aI134
aF0.0
aF0.06958
aF0.1219105
aa(lp140
I15
aI135
aF0.0
aF0.08259999999999999
aF0.0
aa(lp141
I15
aI136
aF0.026109999999999998
aF0.030449999999999994
aF0.0
aaI0
aI0
aI0
aI0
aI0
aI0
aI0
aI0
aI0
aI0
aI0
aI0
aI0
aI0
aI0
aI0
aI0
aI0
aI0
aI0
aI0
aI0
aI0
aI0
aI0
aI0
aI0
aI0
aI0
aI0
aI0
aI0
aI0
aI0
aI0
aI0
aI0
aI0
aI0
a(lp142
I16
aI36
aF0.7
aF0.6130599999999999
aF0.0
aaI0
a(lp143
I16
aI38
aF0.66087
aF0.6521899999999999
aF0.0
aaI0
aI0
a(lp144
I16
aI41
aF0.7
aF0.49566999999999994
aF0.5655925
aa(lp145
I16
aI42
aF0.65653
aF0.56084
aF0.443682
aaI0
aI0
a(lp146
I16
aI45
aF0.63476
aF0.54782
aF0.614341
aaI0
a(lp147
I16
aI47
aF0.5999699999999999
aF0.58261
aF0.590006
aaI0
aI0
aI0
aI0
aI0
aI0
aI0
aI0
a(lp148
I16
aI56
aF0.4695599999999999
aF0.6435099999999999
aF0.7362515
aa(lp149
I16
aI57
aF0.46087999999999996
aF0.6435099999999999
aF0.785
aa(lp150
I16
aI58
aF0.41306999999999994
aF0.7
aF0.6582225
aaI0
a(lp151
I16
aI60
aF0.40431999999999996
aF0.67389
aF0.785
aaI0
aI0
a(lp152
I16
aI63
aF0.34783
aF0.7
aF0.785
aaI0
aI0
aI0
aI0
aI0
aI0
aI0
aI0
aI0
aI0
aI0
aI0
aI0
aI0
aI0
aI0
aI0
aI0
aI0
aI0
aI0
a(lp153
I16
aI85
aF0.017359999999999997
aF0.7
aF0.785
aa(lp154
I16
aI86
aF0.008679999999999998
aF0.69566
aF0.785
aa(lp155
I16
aI87
aF0.0
aF0.68698
aF0.785
aaI0
aI0
aI0
aI0
aI0
aI0
aI0
aI0
aI0
aI0
aI0
aI0
aI0
aI0
aI0
aI0
aI0
aI0
aI0
aI0
aI0
aI0
aI0
aI0
aI0
aI0
aI0
aI0
aI0
aI0
aI0
aI0
aI0
aI0
aI0
aI0
aI0
aI0
aI0
aI0
aI0
a(lp156
I16
aI129
aF0.0
aF0.05648999999999999
aF0.47296250000000006
aaI0
aI0
a(lp157
I16
aI132
aF0.017359999999999997
aF0.030449999999999994
aF0.29743650000000005
aa(lp158
I16
aI133
aF0.017359999999999997
aF0.030449999999999994
aF0.24868800000000002
aa(lp159
I16
aI134
aF0.0
aF0.10437
aF0.0
aaI0
a(lp160
I16
aI136
aF0.04781
aF0.0
aF0.0244135
aaI0
aI0
aI0
aI0
aI0
aI0
aI0
aI0
aI0
aI0
aI0
aI0
aI0
aI0
aI0
aI0
aI0
aI0
aI0
aI0
aI0
aI0
aI0
aI0
aI0
aI0
aI0
aI0
aI0
aI0
aI0
aI0
aI0
aI0
aI0
aI0
aI0
aI0
aI0
a(lp161
I17
aI36
aF0.7
aF0.5999699999999999
aF0.0
aaI0
a(lp162
I17
aI38
aF0.66087
aF0.6391
aF0.0
aaI0
aI0
aI0
a(lp163
I17
aI42
aF0.65653
aF0.54782
aF0.443682
aaI0
aI0
aI0
aI0
a(lp164
I17
aI47
aF0.6391
aF0.49132999999999993
aF0.785
aa(lp165
I17
aI48
aF0.58261
aF0.58261
aF0.590006
aaI0
aI0
aI0
aI0
a(lp166
I17
aI53
aF0.4739
aF0.67823
aF0.5071100000000001
aaI0
a(lp167
I17
aI55
aF0.43910999999999994
aF0.7
aF0.516844
aaI0
a(lp168
I17
aI57
aF0.46087999999999996
aF0.62608
aF0.785
aa(lp169
I17
aI58
aF0.42608999999999997
aF0.66087
aF0.706971
aa(lp170
I17
aI59
aF0.43043
aF0.6435099999999999
aF0.785
aa(lp171
I17
aI60
aF0.37827999999999995
aF0.7
aF0.6582225
aaI0
aI0
aI0
a(lp172
I17
aI64
aF0.34349
aF0.67823
aF0.785
aaI0
aI0
a(lp173
I17
aI67
aF0.29127
aF0.69566
aF0.785
aa(lp174
I17
aI68
aF0.27391
aF0.7
aF0.785
aaI0
aI0
aI0
aI0
aI0
aI0
aI0
aI0
aI0
aI0
aI0
aI0
aI0
a(lp175
I17
aI82
aF0.06524
aF0.7
aF0.785
aaI0
aI0
aI0
aI0
aI0
a(lp176
I17
aI88
aF0.0
aF0.66087
aF0.785
aaI0
aI0
aI0
aI0
aI0
aI0
aI0
aI0
aI0
aI0
aI0
aI0
aI0
aI0
aI0
aI0
aI0
aI0
aI0
aI0
aI0
aI0
aI0
aI0
aI0
aI0
aI0
aI0
aI0
aI0
aI0
aI0
aI0
a(lp177
I17
aI122
aF0.0
aF0.08694
aF0.785
aaI0
aI0
a(lp178
I17
aI125
aF0.017359999999999997
aF0.030449999999999994
aF0.7313845
aa(lp179
I17
aI126
aF0.017359999999999997
aF0.030449999999999994
aF0.6582225
aa(lp180
I17
aI127
aF0.017359999999999997
aF0.030449999999999994
aF0.609474
aa(lp181
I17
aI128
aF0.0
aF0.07392
aF0.47296250000000006
aaI0
a(lp182
I17
aI130
aF0.0
aF0.09127999999999999
aF0.28275700000000004
aa(lp183
I17
aI131
aF0.0
aF0.09127999999999999
aF0.2291415
aa(lp184
I17
aI132
aF0.0
aF0.10437
aF0.1316445
aa(lp185
I17
aI133
aF0.0
aF0.11738999999999998
aF0.0
aaI0
a(lp186
I17
aI135
aF0.04781
aF0.021769999999999998
aF0.0
aaI0
aI0
aI0
aI0
aI0
aI0
aI0
aI0
aI0
aI0
aI0
aI0
aI0
aI0
aI0
aI0
aI0
aI0
aI0
aI0
aI0
aI0
aI0
aI0
aI0
aI0
aI0
aI0
aI0
aI0
aI0
aI0
aI0
aI0
aI0
aI0
aI0
aI0
aI0
aI0
a(lp187
I18
aI36
aF0.7
aF0.58695
aF0.0
aaI0
aI0
aI0
aI0
a(lp188
I18
aI41
aF0.7
aF0.4695599999999999
aF0.5509915
aaI0
aI0
aI0
a(lp189
I18
aI45
aF0.58261
aF0.63042
aF0.29743650000000005
aaI0
a(lp190
I18
aI47
aF0.6435099999999999
aF0.4695599999999999
aF0.785
aa(lp191
I18
aI48
aF0.62174
aF0.49132999999999993
aF0.785
aaI0
a(lp192
I18
aI50
aF0.58261
aF0.5304599999999999
aF0.7605865
aaI0
aI0
a(lp193
I18
aI53
aF0.47824
aF0.66087
aF0.516844
aaI0
aI0
aI0
a(lp194
I18
aI57
aF0.46521999999999997
aF0.6043799999999999
aF0.785
aa(lp195
I18
aI58
aF0.43910999999999994
aF0.63042
aF0.7265175
aa(lp196
I18
aI59
aF0.41741
aF0.6435099999999999
aF0.7362515
aa(lp197
I18
aI60
aF0.41741
aF0.62608
aF0.785
aa(lp198
I18
aI61
aF0.39564
aF0.6435099999999999
aF0.785
aa(lp199
I18
aI62
aF0.38261999999999996
aF0.6435099999999999
aF0.785
aaI0
a(lp200
I18
aI64
aF0.34349
aF0.66521
aF0.7605865
aa(lp201
I18
aI65
aF0.32605999999999996
aF0.66955
aF0.785
aaI0
aI0
aI0
a(lp202
I18
aI69
aF0.25214
aF0.7
aF0.7459855000000001
aaI0
aI0
aI0
a(lp203
I18
aI73
aF0.19565000000000002
aF0.69566
aF0.785
aaI0
aI0
aI0
a(lp204
I18
aI77
aF0.13916
aF0.69566
aF0.785
aaI0
aI0
aI0
aI0
aI0
a(lp205
I18
aI83
aF0.06958
aF0.66955
aF0.785
aaI0
aI0
aI0
aI0
aI0
a(lp206
I18
aI89
aF0.0
aF0.6435099999999999
aF0.7605865
aa(lp207
I18
aI90
aF0.0
aF0.62174
aF0.785
aaI0
aI0
aI0
aI0
aI0
aI0
aI0
aI0
aI0
aI0
aI0
aI0
aI0
aI0
aI0
aI0
aI0
aI0
aI0
aI0
aI0
aI0
aI0
aI0
aI0
aI0
aI0
aI0
aI0
a(lp208
I18
aI120
aF0.0
aF0.12172999999999999
aF0.785
aaI0
aI0
a(lp209
I18
aI123
aF0.0
aF0.10437
aF0.6630895
aa(lp210
I18
aI124
aF0.0
aF0.10437
aF0.59974
aa(lp211
I18
aI125
aF0.0
aF0.10437
aF0.536312
aa(lp212
I18
aI126
aF0.0
aF0.10437
aF0.48269650000000003
aa(lp213
I18
aI127
aF0.0
aF0.10437
aF0.41448
aa(lp214
I18
aI128
aF0.0
aF0.10437
aF0.37052
aa(lp215
I18
aI129
aF0.0
aF0.10437
aF0.31690450000000003
aa(lp216
I18
aI130
aF0.0
aF0.11738999999999998
aF0.19499400000000003
aa(lp217
I18
aI131
aF0.0
aF0.12172999999999999
aF0.12677750000000002
aa(lp218
I18
aI132
aF0.0
aF0.13916
aF0.0
aa(lp219
I18
aI133
aF0.017359999999999997
aF0.09127999999999999
aF0.043881500000000004
aaI0
a(lp220
I18
aI135
aF0.06524
aF0.0
aF0.0
aaI0
aI0
aI0
aI0
aI0
aI0
aI0
aI0
aI0
aI0
aI0
aI0
aI0
aI0
aI0
aI0
aI0
aI0
aI0
aI0
aI0
aI0
aI0
aI0
aI0
aI0
aI0
aI0
aI0
aI0
aI0
aI0
aI0
aI0
aI0
aI0
aI0
aI0
aI0
aI0
a(lp221
I19
aI36
aF0.7
aF0.5739299999999999
aF0.0
aaI0
a(lp222
I19
aI38
aF0.67389
aF0.59129
aF0.0390145
aaI0
aI0
aI0
aI0
a(lp223
I19
aI43
aF0.6435099999999999
aF0.5304599999999999
aF0.443682
aa(lp224
I19
aI44
aF0.56084
aF0.7
aF0.0
aa(lp225
I19
aI45
aF0.5739299999999999
aF0.6391
aF0.2145405
aaI0
a(lp226
I19
aI47
aF0.59129
aF0.5521599999999999
aF0.5314450000000001
aaI0
a(lp227
I19
aI49
aF0.58261
aF0.5304599999999999
aF0.6679565000000001
aa(lp228
I19
aI50
aF0.59129
aF0.49566999999999994
aF0.785
aa(lp229
I19
aI51
aF0.5347999999999999
aF0.58261
aF0.590006
aaI0
aI0
a(lp230
I19
aI54
aF0.43910999999999994
aF0.7
aF0.3754655
aaI0
a(lp231
I19
aI56
aF0.4695599999999999
aF0.6043799999999999
aF0.706971
aaI0
a(lp232
I19
aI58
aF0.39998
aF0.6826399999999999
aF0.5509915
aaI0
aI0
aI0
a(lp233
I19
aI62
aF0.37394
aF0.6435099999999999
aF0.7362515
aaI0
aI0
aI0
aI0
a(lp234
I19
aI67
aF0.29568
aF0.66521
aF0.7605865
aaI0
aI0
aI0
aI0
aI0
aI0
aI0
aI0
a(lp235
I19
aI76
aF0.16954
aF0.66955
aF0.785
aaI0
aI0
a(lp236
I19
aI79
aF0.12607
aF0.66955
aF0.785
aaI0
a(lp237
I19
aI81
aF0.10437
aF0.66087
aF0.785
aa(lp238
I19
aI82
aF0.08694
aF0.66521
aF0.7605865
aaI0
a(lp239
I19
aI84
aF0.06958
aF0.6435099999999999
aF0.785
aa(lp240
I19
aI85
aF0.05648999999999999
aF0.6435099999999999
aF0.785
aaI0
a(lp241
I19
aI87
aF0.0
aF0.7
aF0.5753265000000001
aaI0
aI0
aI0
aI0
a(lp242
I19
aI92
aF0.0
aF0.58695
aF0.785
aaI0
aI0
aI0
aI0
aI0
aI0
aI0
aI0
aI0
aI0
aI0
aI0
aI0
aI0
aI0
aI0
aI0
aI0
aI0
aI0
aI0
aI0
aI0
aI0
a(lp243
I19
aI117
aF0.0
aF0.16954
aF0.785
aa(lp244
I19
aI118
aF0.0
aF0.15652
aF0.785
aaI0
aI0
aI0
aI0
aI0
a(lp245
I19
aI124
aF0.0
aF0.12172999999999999
aF0.5461245
aa(lp246
I19
aI125
aF0.0
aF0.12172999999999999
aF0.48269650000000003
aa(lp247
I19
aI126
aF0.0
aF0.12172999999999999
aF0.41448
aa(lp248
I19
aI127
aF0.04781
aF0.0
aF0.5704595
aaI0
aI0
a(lp249
I19
aI130
aF0.0
aF0.15218
aF0.0633495
aa(lp250
I19
aI131
aF0.0
aF0.15652
aF0.0
aa(lp251
I19
aI132
aF0.017359999999999997
aF0.11738999999999998
aF0.0
aa(lp252
I19
aI133
aF0.03913
aF0.07392
aF0.0
aa(lp253
I19
aI134
aF0.06089999999999999
aF0.026109999999999998
aF0.0
aaI0
aI0
aI0
aI0
aI0
aI0
aI0
aI0
aI0
aI0
aI0
aI0
aI0
aI0
aI0
aI0
aI0
aI0
aI0
aI0
aI0
aI0
aI0
aI0
aI0
aI0
aI0
aI0
aI0
aI0
aI0
aI0
aI0
aI0
aI0
aI0
aI0
aI0
aI0
aI0
aI0
aI0
aI0
aI0
aI0
aI0
a(lp254
I20
aI41
aF0.7
aF0.43477
aF0.5509915
aa(lp255
I20
aI42
aF0.7
aF0.42175
aF0.614341
aaI0
a(lp256
I20
aI44
aF0.7
aF0.38695999999999997
aF0.785
aa(lp257
I20
aI45
aF0.54348
aF0.7
aF0.0
aa(lp258
I20
aI46
aF0.66521
aF0.41741
aF0.785
aaI0
a(lp259
I20
aI48
aF0.5739299999999999
aF0.5521599999999999
aF0.5314450000000001
aaI0
aI0
a(lp260
I20
aI51
aF0.57827
aF0.49132999999999993
aF0.785
aa(lp261
I20
aI52
aF0.51737
aF0.58261
aF0.590006
aaI0
a(lp262
I20
aI54
aF0.4695599999999999
aF0.63476
aF0.5071100000000001
aaI0
aI0
a(lp263
I20
aI57
aF0.43910999999999994
aF0.63042
aF0.604607
aa(lp264
I20
aI58
aF0.43910999999999994
aF0.6043799999999999
aF0.6875030000000001
aaI0
a(lp265
I20
aI60
aF0.39998
aF0.63042
aF0.6728235
aa(lp266
I20
aI61
aF0.38261999999999996
aF0.6391
aF0.682636
aaI0
aI0
aI0
a(lp267
I20
aI65
aF0.34349
aF0.62608
aF0.785
aa(lp268
I20
aI66
aF0.33039999999999997
aF0.62608
aF0.785
aaI0
a(lp269
I20
aI68
aF0.29127
aF0.6435099999999999
aF0.785
aaI0
aI0
aI0
aI0
aI0
a(lp270
I20
aI74
aF0.19565000000000002
aF0.66521
aF0.7605865
aaI0
aI0
a(lp271
I20
aI77
aF0.13474999999999998
aF0.7
aF0.6582225
aaI0
aI0
aI0
aI0
a(lp272
I20
aI82
aF0.10437
aF0.63042
aF0.785
aa(lp273
I20
aI83
aF0.08259999999999999
aF0.6435099999999999
aF0.7362515
aa(lp274
I20
aI84
aF0.06958
aF0.6435099999999999
aF0.7362515
aaI0
aI0
a(lp275
I20
aI87
aF0.0
aF0.7
aF0.526578
aa(lp276
I20
aI88
aF0.0
aF0.67823
aF0.5558585
aaI0
aI0
aI0
aI0
aI0
a(lp277
I20
aI94
aF0.0
aF0.5521599999999999
aF0.7605865
aa(lp278
I20
aI95
aF0.0
aF0.5304599999999999
aF0.785
aaI0
aI0
aI0
aI0
aI0
aI0
aI0
aI0
aI0
aI0
aI0
aI0
aI0
aI0
aI0
aI0
aI0
aI0
a(lp279
I20
aI114
aF0.0
aF0.21741999999999997
aF0.785
aa(lp280
I20
aI115
aF0.0
aF0.20432999999999998
aF0.785
aaI0
aI0
aI0
aI0
a(lp281
I20
aI120
aF0.030449999999999994
aF0.09127999999999999
aF0.7605865
aaI0
aI0
a(lp282
I20
aI123
aF0.0
aF0.15652
aF0.47296250000000006
aaI0
aI0
aI0
aI0
aI0
a(lp283
I20
aI129
aF0.0
aF0.16954
aF0.0633495
aa(lp284
I20
aI130
aF0.030449999999999994
aF0.09127999999999999
aF0.16092499999999998
aa(lp285
I20
aI131
aF0.026109999999999998
aF0.12172999999999999
aF0.0
aa(lp286
I20
aI132
aF0.06958
aF0.0
aF0.19012700000000002
aa(lp287
I20
aI133
aF0.06089999999999999
aF0.04347
aF0.0
aa(lp288
I20
aI134
aF0.07826
aF0.004339999999999999
aF0.0
aaI0
aI0
aI0
aI0
aI0
aI0
aI0
aI0
aI0
aI0
aI0
aI0
aI0
aI0
aI0
aI0
aI0
aI0
aI0
aI0
aI0
aI0
aI0
aI0
aI0
aI0
aI0
aI0
aI0
aI0
aI0
aI0
aI0
aI0
aI0
aI0
aI0
aI0
aI0
aI0
aI0
aI0
aI0
aI0
aI0
aI0
aI0
a(lp289
I21
aI42
aF0.7
aF0.40873
aF0.614341
aaI0
a(lp290
I21
aI44
aF0.59563
aF0.59129
aF0.2145405
aaI0
a(lp291
I21
aI46
aF0.66521
aF0.39998
aF0.785
aaI0
a(lp292
I21
aI48
aF0.5739299999999999
aF0.54348
aF0.5071100000000001
aa(lp293
I21
aI49
aF0.58261
aF0.50869
aF0.624075
aaI0
aI0
aI0
aI0
a(lp294
I21
aI54
aF0.49132999999999993
aF0.58261
aF0.590006
aaI0
a(lp295
I21
aI56
aF0.43910999999999994
aF0.63476
aF0.5071100000000001
aaI0
aI0
a(lp296
I21
aI59
aF0.44786
aF0.56084
aF0.7801330000000001
aaI0
a(lp297
I21
aI61
aF0.39564
aF0.6043799999999999
aF0.706971
aa(lp298
I21
aI62
aF0.36519
aF0.6391
aF0.6387545
aaI0
a(lp299
I21
aI64
aF0.31738
aF0.6826399999999999
aF0.5509915
aa(lp300
I21
aI65
aF0.29568
aF0.69566
aF0.536312
aaI0
a(lp301
I21
aI67
aF0.29568
aF0.6478499999999999
aF0.7021040000000001
aa(lp302
I21
aI68
aF0.25214
aF0.7
aF0.5509915
aa(lp303
I21
aI69
aF0.27391
aF0.6435099999999999
aF0.7362515
aa(lp304
I21
aI70
aF0.26088999999999996
aF0.6435099999999999
aF0.7362515
aa(lp305
I21
aI71
aF0.24779999999999996
aF0.6435099999999999
aF0.7362515
aa(lp306
I21
aI72
aF0.23477999999999996
aF0.6435099999999999
aF0.7362515
aa(lp307
I21
aI73
aF0.22176
aF0.6435099999999999
aF0.7362515
aa(lp308
I21
aI74
aF0.21741999999999997
aF0.62608
aF0.785
aaI0
a(lp309
I21
aI76
aF0.17828999999999998
aF0.6435099999999999
aF0.7362515
aa(lp310
I21
aI77
aF0.16519999999999999
aF0.6435099999999999
aF0.7362515
aa(lp311
I21
aI78
aF0.16519999999999999
aF0.62608
aF0.785
aa(lp312
I21
aI79
aF0.13916
aF0.6435099999999999
aF0.7362515
aa(lp313
I21
aI80
aF0.12607
aF0.6435099999999999
aF0.7362515
aaI0
aI0
aI0
aI0
aI0
aI0
aI0
aI0
aI0
aI0
aI0
a(lp314
I21
aI92
aF0.030449999999999994
aF0.54782
aF0.785
aaI0
aI0
aI0
a(lp315
I21
aI96
aF0.0
aF0.52612
aF0.7118380000000001
aaI0
aI0
a(lp316
I21
aI99
aF0.0
aF0.46521999999999997
aF0.785
aa(lp317
I21
aI100
aF0.0
aF0.44786
aF0.785
aaI0
aI0
aI0
aI0
aI0
aI0
aI0
aI0
a(lp318
I21
aI109
aF0.0
aF0.30001999999999995
aF0.785
aa(lp319
I21
aI110
aF0.0
aF0.28259
aF0.785
aa(lp320
I21
aI111
aF0.0
aF0.26957
aF0.785
aaI0
a(lp321
I21
aI113
aF0.0
aF0.24345999999999998
aF0.7459855000000001
aaI0
aI0
a(lp322
I21
aI116
aF0.0
aF0.21301
aF0.6728235
aa(lp323
I21
aI117
aF0.0
aF0.21301
aF0.628942
aaI0
a(lp324
I21
aI119
aF0.017359999999999997
aF0.15218
aF0.6484885
aa(lp325
I21
aI120
aF0.030449999999999994
aF0.11305
aF0.6875030000000001
aaI0
aI0
a(lp326
I21
aI123
aF0.06958
aF0.0
aF0.7118380000000001
aa(lp327
I21
aI124
aF0.017359999999999997
aF0.13474999999999998
aF0.4095345000000001
aaI0
aI0
aI0
a(lp328
I21
aI128
aF0.0
aF0.20432999999999998
aF0.0
aa(lp329
I21
aI129
aF0.017359999999999997
aF0.15218
aF0.043881500000000004
aa(lp330
I21
aI130
aF0.026109999999999998
aF0.13916
aF0.0
aaI0
a(lp331
I21
aI132
aF0.06089999999999999
aF0.06089999999999999
aF0.0
aa(lp332
I21
aI133
aF0.07826
aF0.021769999999999998
aF0.0
aaI0
aI0
aI0
aI0
aI0
aI0
aI0
aI0
aI0
aI0
aI0
aI0
aI0
aI0
aI0
aI0
aI0
aI0
aI0
aI0
aI0
aI0
aI0
aI0
aI0
aI0
aI0
aI0
aI0
aI0
aI0
aI0
aI0
aI0
aI0
aI0
aI0
aI0
aI0
aI0
aI0
aI0
aI0
a(lp333
I22
aI37
aF0.7
aF0.52612
aF0.0244135
aaI0
a(lp334
I22
aI39
aF0.66087
aF0.5695899999999999
aF0.0
aaI0
aI0
a(lp335
I22
aI42
aF0.7
aF0.39130000000000004
aF0.614341
aaI0
aI0
aI0
a(lp336
I22
aI46
aF0.67389
aF0.37394
aF0.785
aa(lp337
I22
aI47
aF0.56084
aF0.58695
aF0.29743650000000005
aaI0
a(lp338
I22
aI49
aF0.6174
aF0.42608999999999997
aF0.785
aaI0
a(lp339
I22
aI51
aF0.58261
aF0.45653999999999995
aF0.785
aa(lp340
I22
aI52
aF0.4522
aF0.7
aF0.165792
aa(lp341
I22
aI53
aF0.43910999999999994
aF0.7
aF0.1999395
aa(lp342
I22
aI54
aF0.47824
aF0.59129
aF0.516844
aa(lp343
I22
aI55
aF0.5217099999999999
aF0.49566999999999994
aF0.785
aa(lp344
I22
aI56
aF0.43910999999999994
aF0.63042
aF0.47296250000000006
aa(lp345
I22
aI57
aF0.39998
aF0.6826399999999999
aF0.35105200000000003
aa(lp346
I22
aI58
aF0.41306999999999994
aF0.63476
aF0.5071100000000001
aa(lp347
I22
aI59
aF0.4522
aF0.54348
aF0.7703990000000001
aaI0
a(lp348
I22
aI61
aF0.34349
aF0.7
aF0.39006650000000004
aa(lp349
I22
aI62
aF0.34783
aF0.66087
aF0.5314450000000001
aaI0
a(lp350
I22
aI64
aF0.35650999999999994
aF0.6043799999999999
aF0.706971
aaI0
aI0
aI0
a(lp351
I22
aI68
aF0.25214
aF0.7
aF0.502243
aaI0
aI0
aI0
aI0
aI0
a(lp352
I22
aI74
aF0.17388
aF0.7
aF0.536312
aaI0
aI0
aI0
aI0
aI0
aI0
aI0
aI0
aI0
aI0
aI0
a(lp353
I22
aI86
aF0.07392
aF0.6043799999999999
aF0.706971
aaI0
a(lp354
I22
aI88
aF0.0
aF0.7
aF0.39006650000000004
aaI0
a(lp355
I22
aI90
aF0.0
aF0.65653
aF0.47296250000000006
aaI0
a(lp356
I22
aI92
aF0.0
aF0.6130599999999999
aF0.5558585
aa(lp357
I22
aI93
aF0.004339999999999999
aF0.58261
aF0.590006
aaI0
a(lp358
I22
aI95
aF0.0
aF0.5521599999999999
aF0.6338875
aaI0
aI0
aI0
aI0
a(lp359
I22
aI100
aF0.0
aF0.45653999999999995
aF0.7265175
aaI0
aI0
a(lp360
I22
aI103
aF0.0
aF0.40873
aF0.7216505000000001
aa(lp361
I22
aI104
aF0.0
aF0.38695999999999997
aF0.7411185
aaI0
a(lp362
I22
aI106
aF0.0
aF0.35650999999999994
aF0.7362515
aa(lp363
I22
aI107
aF0.0
aF0.34783
aF0.7216505000000001
aaI0
a(lp364
I22
aI109
aF0.0
aF0.31738
aF0.7216505000000001
aaI0
aI0
a(lp365
I22
aI112
aF0.0
aF0.28259
aF0.6630895
aa(lp366
I22
aI113
aF0.0
aF0.26522999999999997
aF0.6533555000000001
aaI0
aI0
aI0
a(lp367
I22
aI117
aF0.030449999999999994
aF0.15652
aF0.6875030000000001
aa(lp368
I22
aI118
aF0.030449999999999994
aF0.1435
aF0.6875030000000001
aa(lp369
I22
aI119
aF0.0
aF0.21301
aF0.4875635
aa(lp370
I22
aI120
aF0.017359999999999997
aF0.16954
aF0.536312
aa(lp371
I22
aI121
aF0.0
aF0.21301
aF0.39006650000000004
aaI0
aI0
a(lp372
I22
aI124
aF0.0
aF0.21301
aF0.2145405
aa(lp373
I22
aI125
aF0.0
aF0.21301
aF0.1462455
aa(lp374
I22
aI126
aF0.0
aF0.21301
aF0.082896
aa(lp375
I22
aI127
aF0.0
aF0.22176
aF0.0
aa(lp376
I22
aI128
aF0.017359999999999997
aF0.17388
aF0.043881500000000004
aaI0
aI0
a(lp377
I22
aI131
aF0.06089999999999999
aF0.07826
aF0.0
aa(lp378
I22
aI132
aF0.09562
aF0.0
aF0.04874850000000001
aaI0
aI0
aI0
aI0
aI0
aI0
aI0
aI0
aI0
aI0
aI0
aI0
aI0
aI0
aI0
aI0
aI0
aI0
aI0
aI0
aI0
aI0
aI0
aI0
aI0
aI0
aI0
aI0
aI0
aI0
aI0
aI0
aI0
aI0
aI0
aI0
aI0
aI0
aI0
aI0
aI0
aI0
aI0
aI0
a(lp379
I23
aI37
aF0.7
aF0.51737
aF0.0
aaI0
a(lp380
I23
aI39
aF0.66087
aF0.5565
aF0.0
aa(lp381
I23
aI40
aF0.7
aF0.42916999999999994
aF0.3754655
aaI0
aI0
aI0
a(lp382
I23
aI44
aF0.67823
aF0.38695999999999997
aF0.6582225
aa(lp383
I23
aI45
aF0.56084
aF0.63476
aF0.0390145
aa(lp384
I23
aI46
aF0.63476
aF0.43910999999999994
aF0.614341
aa(lp385
I23
aI47
aF0.58261
aF0.5304599999999999
aF0.4095345000000001
aaI0
a(lp386
I23
aI49
aF0.48699
aF0.7
aF0.0
aa(lp387
I23
aI50
aF0.60872
aF0.41741
aF0.785
aaI0
aI0
a(lp388
I23
aI53
aF0.43910999999999994
aF0.7
aF0.14137850000000002
aaI0
aI0
a(lp389
I23
aI56
aF0.50869
aF0.49132999999999993
aF0.785
aaI0
a(lp390
I23
aI58
aF0.43477
aF0.58261
aF0.590006
aaI0
a(lp391
I23
aI60
aF0.38261999999999996
aF0.63476
aF0.5071100000000001
aa(lp392
I23
aI61
aF0.37394
aF0.63476
aF0.5071100000000001
aaI0
aI0
a(lp393
I23
aI64
aF0.31304
aF0.67823
aF0.443682
aa(lp394
I23
aI65
aF0.33914999999999995
aF0.60872
aF0.6582225
aaI0
a(lp395
I23
aI67
aF0.28259
aF0.66087
aF0.5509915
aa(lp396
I23
aI68
aF0.25214
aF0.7
aF0.43881500000000007
aaI0
aI0
aI0
aI0
aI0
aI0
aI0
aI0
aI0
aI0
aI0
aI0
aI0
aI0
aI0
aI0
aI0
aI0
aI0
aI0
aI0
a(lp397
I23
aI90
aF0.0
aF0.67389
aF0.37052
aaI0
a(lp398
I23
aI92
aF0.0
aF0.62174
aF0.47296250000000006
aa(lp399
I23
aI93
aF0.0
aF0.60872
aF0.47296250000000006
aa(lp400
I23
aI94
aF0.0
aF0.58261
aF0.5314450000000001
aaI0
a(lp401
I23
aI96
aF0.0
aF0.54782
aF0.5558585
aa(lp402
I23
aI97
aF0.0
aF0.52612
aF0.5801935
aaI0
a(lp403
I23
aI99
aF0.030449999999999994
aF0.42608999999999997
aF0.785
aaI0
a(lp404
I23
aI101
aF0.0
aF0.45653999999999995
aF0.6387545
aaI0
aI0
a(lp405
I23
aI104
aF0.0
aF0.40873
aF0.6484885
aa(lp406
I23
aI105
aF0.0
aF0.38695999999999997
aF0.6679565000000001
aaI0
a(lp407
I23
aI107
aF0.0
aF0.35650999999999994
aF0.6630895
aaI0
a(lp408
I23
aI109
aF0.030449999999999994
aF0.26088999999999996
aF0.785
aa(lp409
I23
aI110
aF0.0
aF0.31738
aF0.6387545
aaI0
aI0
aI0
a(lp410
I23
aI114
aF0.0
aF0.27391
aF0.5558585
aa(lp411
I23
aI115
aF0.0
aF0.26522999999999997
aF0.526578
aa(lp412
I23
aI116
aF0.0
aF0.26522999999999997
aF0.48269650000000003
aa(lp413
I23
aI117
aF0.0
aF0.25214
aF0.47296250000000006
aa(lp414
I23
aI118
aF0.06089999999999999
aF0.09127999999999999
aF0.7265175
aa(lp415
I23
aI119
aF0.06089999999999999
aF0.09127999999999999
aF0.6728235
aa(lp416
I23
aI120
aF0.09562
aF0.0
aF0.7801330000000001
aa(lp417
I23
aI121
aF0.0
aF0.23477999999999996
aF0.2877025
aa(lp418
I23
aI122
aF0.0
aF0.23477999999999996
aF0.23400849999999998
aa(lp419
I23
aI123
aF0.0
aF0.23477999999999996
aF0.170659
aa(lp420
I23
aI124
aF0.0
aF0.23477999999999996
aF0.1219105
aa(lp421
I23
aI125
aF0.0
aF0.25214
aF0.0
aaI0
aI0
a(lp422
I23
aI128
aF0.06089999999999999
aF0.07826
aF0.19499400000000003
aa(lp423
I23
aI129
aF0.09562
aF0.0
aF0.23887550000000002
aa(lp424
I23
aI130
aF0.09562
aF0.0
aF0.17552600000000002
aa(lp425
I23
aI131
aF0.10003
aF0.0
aF0.09749700000000001
aa(lp426
I23
aI132
aF0.10870999999999999
aF0.0
aF0.0
aaI0
aI0
aI0
aI0
aI0
aI0
aI0
aI0
aI0
aI0
aI0
aI0
aI0
aI0
aI0
aI0
aI0
aI0
aI0
aI0
aI0
aI0
aI0
aI0
aI0
aI0
aI0
aI0
aI0
aI0
aI0
aI0
aI0
aI0
aI0
aI0
aI0
aI0
aI0
aI0
aI0
aI0
aI0
aI0
a(lp427
I24
aI37
aF0.7
aF0.50435
aF0.0
aaI0
aI0
a(lp428
I24
aI40
aF0.7
aF0.41516999999999993
aF0.3754655
aaI0
a(lp429
I24
aI42
aF0.7
aF0.37394
aF0.5509915
aaI0
aI0
a(lp430
I24
aI45
aF0.66521
aF0.38261999999999996
aF0.6582225
aa(lp431
I24
aI46
aF0.58261
aF0.54348
aF0.29743650000000005
aa(lp432
I24
aI47
aF0.5304599999999999
aF0.65653
aF0.0
aaI0
a(lp433
I24
aI49
aF0.5739299999999999
aF0.49566999999999994
aF0.5071100000000001
aa(lp434
I24
aI50
aF0.60872
aF0.39998
aF0.785
aaI0
a(lp435
I24
aI52
aF0.57827
aF0.42608999999999997
aF0.785
aa(lp436
I24
aI53
aF0.43910999999999994
aF0.7
aF0.082896
aa(lp437
I24
aI54
aF0.49132999999999993
aF0.5521599999999999
aF0.5314450000000001
aa(lp438
I24
aI55
aF0.47824
aF0.56084
aF0.516844
aaI0
aI0
a(lp439
I24
aI58
aF0.4522
aF0.54348
aF0.6387545
aaI0
a(lp440
I24
aI60
aF0.40873
aF0.58261
aF0.590006
aa(lp441
I24
aI61
aF0.43043
aF0.51737
aF0.785
aaI0
a(lp442
I24
aI63
aF0.34783
aF0.62608
aF0.5314450000000001
aaI0
aI0
aI0
aI0
a(lp443
I24
aI68
aF0.28259
aF0.6391
aF0.5509915
aa(lp444
I24
aI69
aF0.25214
aF0.67389
aF0.4583615
aa(lp445
I24
aI70
aF0.28692999999999996
aF0.58695
aF0.7021040000000001
aa(lp446
I24
aI71
aF0.26088999999999996
aF0.60872
aF0.6582225
aa(lp447
I24
aI72
aF0.24779999999999996
aF0.60872
aF0.6582225
aaI0
aI0
aI0
aI0
a(lp448
I24
aI77
aF0.18263000000000001
aF0.60872
aF0.6582225
aaI0
aI0
aI0
aI0
aI0
a(lp449
I24
aI83
aF0.14784
aF0.53914
aF0.785
aaI0
aI0
aI0
aI0
aI0
a(lp450
I24
aI89
aF0.0
aF0.7
aF0.263289
aa(lp451
I24
aI90
aF0.09127999999999999
aF0.49132999999999993
aF0.785
aaI0
a(lp452
I24
aI92
aF0.07826
aF0.47824
aF0.785
aaI0
aI0
a(lp453
I24
aI95
aF0.013019999999999999
aF0.5521599999999999
aF0.5314450000000001
aa(lp454
I24
aI96
aF0.0
aF0.56084
aF0.47296250000000006
aaI0
a(lp455
I24
aI98
aF0.030449999999999994
aF0.45653999999999995
aF0.6875030000000001
aaI0
a(lp456
I24
aI100
aF0.0
aF0.48257999999999995
aF0.5558585
aaI0
a(lp457
I24
aI102
aF0.0
aF0.45653999999999995
aF0.5411790000000001
aaI0
aI0
a(lp458
I24
aI105
aF0.0
aF0.40873
aF0.5655925
aa(lp459
I24
aI106
aF0.0
aF0.38695999999999997
aF0.5801935
aa(lp460
I24
aI107
aF0.0
aF0.38261999999999996
aF0.5558585
aaI0
a(lp461
I24
aI109
aF0.0
aF0.35217
aF0.5509915
aaI0
a(lp462
I24
aI111
aF0.0
aF0.33481
aF0.4972975
aa(lp463
I24
aI112
aF0.0
aF0.31738
aF0.4972975
aa(lp464
I24
aI113
aF0.017359999999999997
aF0.26957
aF0.5509915
aaI0
aI0
a(lp465
I24
aI116
aF0.06958
aF0.10870999999999999
aF0.7508525
aa(lp466
I24
aI117
aF0.0
aF0.28259
aF0.331584
aaI0
a(lp467
I24
aI119
aF0.0
aF0.26522999999999997
aF0.2925695
aa(lp468
I24
aI120
aF0.0
aF0.26522999999999997
aF0.23400849999999998
aa(lp469
I24
aI121
aF0.0
aF0.26522999999999997
aF0.180393
aa(lp470
I24
aI122
aF0.0
aF0.26522999999999997
aF0.11704350000000001
aa(lp471
I24
aI123
aF0.0
aF0.27825
aF0.0
aa(lp472
I24
aI124
aF0.06089999999999999
aF0.09127999999999999
aF0.38519950000000003
aaI0
a(lp473
I24
aI126
aF0.026109999999999998
aF0.20432999999999998
aF0.0
aa(lp474
I24
aI127
aF0.10003
aF0.0
aF0.35105200000000003
aa(lp475
I24
aI128
aF0.06089999999999999
aF0.12607
aF0.0
aa(lp476
I24
aI129
aF0.06958
aF0.10003
aF0.0
aa(lp477
I24
aI130
aF0.10870999999999999
aF0.0
aF0.1121765
aa(lp478
I24
aI131
aF0.10437
aF0.021769999999999998
aF0.0
aaI0
aI0
aI0
aI0
aI0
aI0
aI0
aI0
aI0
aI0
aI0
aI0
aI0
aI0
aI0
aI0
aI0
aI0
aI0
aI0
aI0
aI0
aI0
aI0
aI0
aI0
aI0
aI0
aI0
aI0
aI0
aI0
aI0
aI0
aI0
aI0
aI0
aI0
aI0
aI0
aI0
aI0
aI0
aI0
aI0
aI0
aI0
a(lp479
I25
aI39
aF0.66955
aF0.5217099999999999
aF0.0
aaI0
a(lp480
I25
aI41
aF0.6913199999999999
aF0.41306999999999994
aF0.3754655
aaI0
a(lp481
I25
aI43
aF0.7
aF0.34349
aF0.614341
aa(lp482
I25
aI44
aF0.58695
aF0.59563
aF0.0
aa(lp483
I25
aI45
aF0.7
aF0.30436
aF0.785
aaI0
aI0
a(lp484
I25
aI48
aF0.5217099999999999
aF0.63476
aF0.0390145
aa(lp485
I25
aI49
aF0.50001
aF0.66087
aF0.0
aa(lp486
I25
aI50
aF0.6174
aF0.37394
aF0.785
aa(lp487
I25
aI51
aF0.4695599999999999
aF0.6826399999999999
aF0.0
aaI0
a(lp488
I25
aI53
aF0.43910999999999994
aF0.69566
aF0.043881500000000004
aa(lp489
I25
aI54
aF0.4522
aF0.63042
aF0.24868800000000002
aa(lp490
I25
aI55
aF0.47824
aF0.54782
aF0.516844
aa(lp491
I25
aI56
aF0.43910999999999994
aF0.6043799999999999
aF0.38519950000000003
aaI0
aI0
aI0
aI0
a(lp492
I25
aI61
aF0.44344999999999996
aF0.49132999999999993
aF0.785
aa(lp493
I25
aI62
aF0.33914999999999995
aF0.67389
aF0.3071705
aa(lp494
I25
aI63
aF0.3696
aF0.58261
aF0.590006
aa(lp495
I25
aI64
aF0.34783
aF0.6043799999999999
aF0.5314450000000001
aa(lp496
I25
aI65
aF0.34349
aF0.59129
aF0.5850605
aaI0
aI0
a(lp497
I25
aI68
aF0.25214
aF0.7
aF0.336451
aaI0
a(lp498
I25
aI70
aF0.29568
aF0.5652499999999999
aF0.697237
aaI0
aI0
a(lp499
I25
aI73
aF0.25214
aF0.5739299999999999
aF0.7021040000000001
aaI0
aI0
aI0
a(lp500
I25
aI77
aF0.1435
aF0.69566
aF0.3754655
aaI0
aI0
aI0
aI0
aI0
aI0
a(lp501
I25
aI84
aF0.14784
aF0.51737
aF0.785
aaI0
a(lp502
I25
aI86
aF0.09562
aF0.58261
aF0.590006
aa(lp503
I25
aI87
aF0.10437
aF0.54348
aF0.6679565000000001
aaI0
aI0
a(lp504
I25
aI90
aF0.0
aF0.7
aF0.180393
aaI0
aI0
aI0
aI0
a(lp505
I25
aI95
aF0.07826
aF0.42608999999999997
aF0.785
aaI0
aI0
aI0
a(lp506
I25
aI99
aF0.0
aF0.52612
aF0.42421400000000004
aaI0
a(lp507
I25
aI101
aF0.0
aF0.48257999999999995
aF0.47296250000000006
aa(lp508
I25
aI102
aF0.0
aF0.4695599999999999
aF0.47296250000000006
aa(lp509
I25
aI103
aF0.0
aF0.45653999999999995
aF0.48269650000000003
aa(lp510
I25
aI104
aF0.0
aF0.44344999999999996
aF0.47296250000000006
aa(lp511
I25
aI105
aF0.0
aF0.42608999999999997
aF0.47296250000000006
aa(lp512
I25
aI106
aF0.0
aF0.40873
aF0.4875635
aa(lp513
I25
aI107
aF0.0
aF0.39564
aF0.47296250000000006
aa(lp514
I25
aI108
aF0.0
aF0.38695999999999997
aF0.45341600000000004
aaI0
aI0
aI0
aI0
aI0
aI0
a(lp515
I25
aI115
aF0.0
aF0.31738
aF0.3071705
aa(lp516
I25
aI116
aF0.0
aF0.31738
aF0.258422
aaI0
a(lp517
I25
aI118
aF0.11738999999999998
aF0.0
aF0.785
aa(lp518
I25
aI119
aF0.06958
aF0.10870999999999999
aF0.5704595
aa(lp519
I25
aI120
aF0.06958
aF0.10870999999999999
aF0.502243
aa(lp520
I25
aI121
aF0.0
aF0.3087
aF0.0
aaI0
a(lp521
I25
aI123
aF0.017359999999999997
aF0.24779999999999996
aF0.043881500000000004
aa(lp522
I25
aI124
aF0.026109999999999998
aF0.23043999999999998
aF0.0
aa(lp523
I25
aI125
aF0.06089999999999999
aF0.12607
aF0.19499400000000003
aa(lp524
I25
aI126
aF0.04781
aF0.17388
aF0.0
aaI0
a(lp525
I25
aI128
aF0.07826
aF0.10437
aF0.0
aa(lp526
I25
aI129
aF0.11738999999999998
aF0.0
aF0.14137850000000002
aaI0
aI0
aI0
aI0
aI0
aI0
aI0
aI0
aI0
aI0
aI0
aI0
aI0
aI0
aI0
aI0
aI0
aI0
aI0
aI0
aI0
aI0
aI0
aI0
aI0
aI0
aI0
aI0
aI0
aI0
aI0
aI0
aI0
aI0
aI0
aI0
aI0
aI0
aI0
aI0
aI0
aI0
aI0
aI0
aI0
aI0
aI0
aI0
aI0
aI0
a(lp527
I26
aI40
aF0.66087
aF0.51303
aF0.0
aaI0
a(lp528
I26
aI42
aF0.67389
aF0.41306999999999994
aF0.3754655
aa(lp529
I26
aI43
aF0.6913199999999999
aF0.35217
aF0.5509915
aa(lp530
I26
aI44
aF0.66955
aF0.37394
aF0.536312
aa(lp531
I26
aI45
aF0.6478499999999999
aF0.40431999999999996
aF0.516844
aa(lp532
I26
aI46
aF0.58261
aF0.5304599999999999
aF0.2145405
aa(lp533
I26
aI47
aF0.63476
aF0.39130000000000004
aF0.614341
aaI0
a(lp534
I26
aI49
aF0.50869
aF0.63476
aF0.0390145
aa(lp535
I26
aI50
aF0.57827
aF0.44786
aF0.5655925
aa(lp536
I26
aI51
aF0.59563
aF0.39130000000000004
aF0.7216505000000001
aa(lp537
I26
aI52
aF0.46087999999999996
aF0.67389
aF0.0
aa(lp538
I26
aI53
aF0.44344999999999996
aF0.68698
aF0.0
aa(lp539
I26
aI54
aF0.42608999999999997
aF0.7
aF0.0
aa(lp540
I26
aI55
aF0.43910999999999994
aF0.63042
aF0.23887550000000002
aa(lp541
I26
aI56
aF0.43910999999999994
aF0.6043799999999999
aF0.31690450000000003
aaI0
aI0
a(lp542
I26
aI59
aF0.43043
aF0.5521599999999999
aF0.5314450000000001
aaI0
aI0
a(lp543
I26
aI62
aF0.36519
aF0.60872
aF0.443682
aa(lp544
I26
aI63
aF0.39564
aF0.5304599999999999
aF0.6630895
aa(lp545
I26
aI64
aF0.39564
aF0.50869
aF0.7313845
aaI0
a(lp546
I26
aI66
aF0.37827999999999995
aF0.49566999999999994
aF0.785
aa(lp547
I26
aI67
aF0.31738
aF0.59129
aF0.5509915
aa(lp548
I26
aI68
aF0.25214
aF0.7
aF0.273023
aa(lp549
I26
aI69
aF0.29568
aF0.58695
aF0.5850605
aaI0
a(lp550
I26
aI71
aF0.26088999999999996
aF0.6043799999999999
aF0.5509915
aaI0
aI0
aI0
aI0
aI0
aI0
a(lp551
I26
aI78
aF0.20432999999999998
aF0.54782
aF0.6875030000000001
aaI0
a(lp552
I26
aI80
aF0.16519999999999999
aF0.58261
aF0.590006
aa(lp553
I26
aI81
aF0.15218
aF0.58261
aF0.590006
aa(lp554
I26
aI82
aF0.1435
aF0.58261
aF0.590006
aaI0
aI0
aI0
a(lp555
I26
aI86
aF0.14784
aF0.48257999999999995
aF0.785
aaI0
aI0
a(lp556
I26
aI89
aF0.10437
aF0.50435
aF0.6679565000000001
aa(lp557
I26
aI90
aF0.06958
aF0.5521599999999999
aF0.5314450000000001
aa(lp558
I26
aI91
aF0.0
aF0.7
aF0.09749700000000001
aaI0
a(lp559
I26
aI93
aF0.10437
aF0.42608999999999997
aF0.785
aa(lp560
I26
aI94
aF0.09562
aF0.41741
aF0.785
aaI0
aI0
a(lp561
I26
aI97
aF0.0
aF0.5739299999999999
aF0.3120375
aa(lp562
I26
aI98
aF0.017359999999999997
aF0.51737
aF0.4095345000000001
aaI0
aI0
aI0
aI0
a(lp563
I26
aI103
aF0.0
aF0.47824
aF0.365653
aa(lp564
I26
aI104
aF0.0
aF0.45653999999999995
aF0.39006650000000004
aaI0
aI0
aI0
a(lp565
I26
aI108
aF0.0
aF0.40873
aF0.341318
aa(lp566
I26
aI109
aF0.04781
aF0.27825
aF0.624075
aa(lp567
I26
aI110
aF0.0
aF0.38695999999999997
aF0.331584
aa(lp568
I26
aI111
aF0.04347
aF0.26957
aF0.5509915
aa(lp569
I26
aI112
aF0.03913
aF0.26957
aF0.511977
aa(lp570
I26
aI113
aF0.0
aF0.35650999999999994
aF0.263289
aa(lp571
I26
aI114
aF0.0
aF0.35650999999999994
aF0.21940750000000003
aa(lp572
I26
aI115
aF0.10437
aF0.07392
aF0.7801330000000001
aaI0
aI0
a(lp573
I26
aI118
aF0.10437
aF0.052149999999999995
aF0.6679565000000001
aa(lp574
I26
aI119
aF0.0
aF0.33481
aF0.0
aaI0
a(lp575
I26
aI121
aF0.11738999999999998
aF0.0
aF0.604607
aa(lp576
I26
aI122
aF0.026109999999999998
aF0.26088999999999996
aF0.0
aa(lp577
I26
aI123
aF0.11738999999999998
aF0.0
aF0.4972975
aa(lp578
I26
aI124
aF0.11738999999999998
aF0.0
aF0.429081
aa(lp579
I26
aI125
aF0.11738999999999998
aF0.0
aF0.3754655
aa(lp580
I26
aI126
aF0.11738999999999998
aF0.0
aF0.331584
aa(lp581
I26
aI127
aF0.12172999999999999
aF0.0
aF0.23887550000000002
aa(lp582
I26
aI128
aF0.09562
aF0.08259999999999999
aF0.0
aaI0
aI0
aI0
aI0
aI0
aI0
aI0
aI0
aI0
aI0
aI0
aI0
aI0
aI0
aI0
aI0
aI0
aI0
aI0
aI0
aI0
aI0
aI0
aI0
aI0
aI0
aI0
aI0
aI0
aI0
aI0
aI0
aI0
aI0
aI0
aI0
aI0
aI0
aI0
aI0
aI0
aI0
aI0
aI0
aI0
aI0
aI0
aI0
aI0
a(lp583
I27
aI38
aF0.7
aF0.46087999999999996
aF0.0
aaI0
a(lp584
I27
aI40
aF0.66521
aF0.49566999999999994
aF0.0
aa(lp585
I27
aI41
aF0.7
aF0.37394
aF0.3754655
aa(lp586
I27
aI42
aF0.63042
aF0.52612
aF0.0
aaI0
a(lp587
I27
aI44
aF0.66955
aF0.37394
aF0.4924305
aa(lp588
I27
aI45
aF0.58261
aF0.56084
aF0.0390145
aa(lp589
I27
aI46
aF0.56084
aF0.58695
aF0.0
aa(lp590
I27
aI47
aF0.5739299999999999
aF0.52612
aF0.2145405
aa(lp591
I27
aI48
aF0.5304599999999999
aF0.6130599999999999
aF0.0
aa(lp592
I27
aI49
aF0.58261
aF0.45653999999999995
aF0.4632285
aa(lp593
I27
aI50
aF0.5739299999999999
aF0.4522
aF0.5071100000000001
aa(lp594
I27
aI51
aF0.47824
aF0.6521899999999999
aF0.0
aaI0
a(lp595
I27
aI53
aF0.57827
aF0.37394
aF0.785
aa(lp596
I27
aI54
aF0.43910999999999994
aF0.66521
aF0.043881500000000004
aa(lp597
I27
aI55
aF0.48257999999999995
aF0.5304599999999999
aF0.443682
aa(lp598
I27
aI56
aF0.39998
aF0.7
aF0.0
aa(lp599
I27
aI57
aF0.4522
aF0.54782
aF0.43881500000000007
aa(lp600
I27
aI58
aF0.50001
aF0.42608999999999997
aF0.785
aa(lp601
I27
aI59
aF0.39998
aF0.60872
aF0.336451
aaI0
a(lp602
I27
aI61
aF0.39998
aF0.5565
aF0.4972975
aa(lp603
I27
aI62
aF0.39130000000000004
aF0.5521599999999999
aF0.5314450000000001
aa(lp604
I27
aI63
aF0.33914999999999995
aF0.6391
aF0.3071705
aaI0
a(lp605
I27
aI65
aF0.34783
aF0.5739299999999999
aF0.5314450000000001
aaI0
a(lp606
I27
aI67
aF0.27825
aF0.66521
aF0.2925695
aa(lp607
I27
aI68
aF0.29568
aF0.6043799999999999
aF0.4632285
aa(lp608
I27
aI69
aF0.34349
aF0.49132999999999993
aF0.785
aaI0
a(lp609
I27
aI71
aF0.31738
aF0.49566999999999994
aF0.785
aa(lp610
I27
aI72
aF0.3087
aF0.49132999999999993
aF0.785
aa(lp611
I27
aI73
aF0.29127
aF0.49566999999999994
aF0.785
aa(lp612
I27
aI74
aF0.28259
aF0.49132999999999993
aF0.785
aa(lp613
I27
aI75
aF0.27391
aF0.49132999999999993
aF0.785
aaI0
aI0
aI0
a(lp614
I27
aI79
aF0.20432999999999998
aF0.5304599999999999
aF0.6875030000000001
aaI0
aI0
aI0
a(lp615
I27
aI83
aF0.11738999999999998
aF0.6174
aF0.4095345000000001
aa(lp616
I27
aI84
aF0.07392
aF0.7
aF0.165792
aa(lp617
I27
aI85
aF0.06089999999999999
aF0.7
aF0.165792
aaI0
aI0
a(lp618
I27
aI88
aF0.14784
aF0.44344999999999996
aF0.785
aaI0
aI0
aI0
a(lp619
I27
aI92
aF0.0
aF0.7
aF0.009734
aa(lp620
I27
aI93
aF0.0
aF0.67823
aF0.0633495
aa(lp621
I27
aI94
aF0.0
aF0.65653
aF0.09263
aaI0
aI0
aI0
aI0
aI0
aI0
a(lp622
I27
aI101
aF0.0
aF0.52612
aF0.258422
aaI0
aI0
aI0
a(lp623
I27
aI105
aF0.030449999999999994
aF0.39130000000000004
aF0.4632285
aa(lp624
I27
aI106
aF0.0
aF0.45653999999999995
aF0.268156
aaI0
aI0
aI0
a(lp625
I27
aI110
aF0.0
aF0.40873
aF0.2291415
aa(lp626
I27
aI111
aF0.0
aF0.40873
aF0.170659
aaI0
a(lp627
I27
aI113
aF0.0
aF0.38695999999999997
aF0.12677750000000002
aa(lp628
I27
aI114
aF0.0
aF0.38695999999999997
aF0.078029
aa(lp629
I27
aI115
aF0.10437
aF0.10003
aF0.6679565000000001
aa(lp630
I27
aI116
aF0.0
aF0.37827999999999995
aF0.0
aa(lp631
I27
aI117
aF0.10003
aF0.09562
aF0.5704595
aa(lp632
I27
aI118
aF0.10437
aF0.07392
aF0.5850605
aa(lp633
I27
aI119
aF0.10437
aF0.07392
aF0.526578
aa(lp634
I27
aI120
aF0.026109999999999998
aF0.29127
aF0.0
aa(lp635
I27
aI121
aF0.06089999999999999
aF0.18263000000000001
aF0.19499400000000003
aaI0
a(lp636
I27
aI123
aF0.052149999999999995
aF0.21301
aF0.0
aa(lp637
I27
aI124
aF0.06089999999999999
aF0.19130999999999998
aF0.0
aa(lp638
I27
aI125
aF0.10437
aF0.07392
aF0.165792
aa(lp639
I27
aI126
aF0.10437
aF0.07392
aF0.107231
aa(lp640
I27
aI127
aF0.10437
aF0.08694
aF0.0
aaI0
a(lp641
I27
aI129
aF0.1435
aF0.0
aF0.0
aaI0
aI0
aI0
aI0
aI0
aI0
aI0
aI0
aI0
aI0
aI0
aI0
aI0
aI0
aI0
aI0
aI0
aI0
aI0
aI0
aI0
aI0
aI0
aI0
aI0
aI0
aI0
aI0
aI0
aI0
aI0
aI0
aI0
aI0
aI0
aI0
aI0
aI0
aI0
aI0
aI0
aI0
aI0
aI0
aI0
aI0
aI0
aI0
aI0
aI0
aI0
aI0
a(lp642
I28
aI42
aF0.7
aF0.33914999999999995
aF0.43881500000000007
aaI0
aI0
a(lp643
I28
aI45
aF0.63476
aF0.42175
aF0.35591900000000004
aa(lp644
I28
aI46
aF0.7
aF0.25214
aF0.785
aaI0
a(lp645
I28
aI48
aF0.5347999999999999
aF0.59563
aF0.0
aaI0
a(lp646
I28
aI50
aF0.59563
aF0.39130000000000004
aF0.590006
aaI0
a(lp647
I28
aI52
aF0.4695599999999999
aF0.6391
aF0.0
aa(lp648
I28
aI53
aF0.46087999999999996
aF0.63476
aF0.0390145
aa(lp649
I28
aI54
aF0.44344999999999996
aF0.65653
aF0.0
aa(lp650
I28
aI55
aF0.42608999999999997
aF0.66955
aF0.0
aaI0
a(lp651
I28
aI57
aF0.45653999999999995
aF0.5304599999999999
aF0.443682
aa(lp652
I28
aI58
aF0.44786
aF0.5304599999999999
aF0.443682
aa(lp653
I28
aI59
aF0.36519
aF0.7
aF0.0
aa(lp654
I28
aI60
aF0.39998
aF0.58695
aF0.336451
aa(lp655
I28
aI61
aF0.39998
aF0.5565
aF0.43881500000000007
aaI0
aI0
a(lp656
I28
aI64
aF0.39564
aF0.50001
aF0.6484885
aa(lp657
I28
aI65
aF0.35650999999999994
aF0.5521599999999999
aF0.5314450000000001
aaI0
a(lp658
I28
aI67
aF0.31304
aF0.59129
aF0.443682
aa(lp659
I28
aI68
aF0.27825
aF0.6478499999999999
aF0.2925695
aa(lp660
I28
aI69
aF0.29568
aF0.57827
aF0.502243
aaI0
a(lp661
I28
aI71
aF0.22176
aF0.7
aF0.165792
aa(lp662
I28
aI72
aF0.25214
aF0.5999699999999999
aF0.4583615
aaI0
a(lp663
I28
aI74
aF0.18697
aF0.7
aF0.165792
aa(lp664
I28
aI75
aF0.17388
aF0.7
aF0.165792
aaI0
a(lp665
I28
aI77
aF0.15218
aF0.7
aF0.165792
aaI0
a(lp666
I28
aI79
aF0.13041
aF0.7
aF0.165792
aaI0
a(lp667
I28
aI81
aF0.1435
aF0.6174
aF0.3754655
aa(lp668
I28
aI82
aF0.11738999999999998
aF0.6478499999999999
aF0.2877025
aaI0
aI0
aI0
aI0
a(lp669
I28
aI87
aF0.16954
aF0.42608999999999997
aF0.785
aaI0
aI0
a(lp670
I28
aI90
aF0.026109999999999998
aF0.7
aF0.0
aa(lp671
I28
aI91
aF0.14784
aF0.39564
aF0.785
aaI0
a(lp672
I28
aI93
aF0.017359999999999997
aF0.66087
aF0.043881500000000004
aa(lp673
I28
aI94
aF0.10437
aF0.42608999999999997
aF0.6484885
aa(lp674
I28
aI95
aF0.0
aF0.66087
aF0.0
aa(lp675
I28
aI96
aF0.0
aF0.6478499999999999
aF0.0
aa(lp676
I28
aI97
aF0.0
aF0.62174
aF0.0633495
aa(lp677
I28
aI98
aF0.0
aF0.60872
aF0.0633495
aaI0
aI0
a(lp678
I28
aI101
aF0.0
aF0.5521599999999999
aF0.1365115
aaI0
a(lp679
I28
aI103
aF0.052149999999999995
aF0.39130000000000004
aF0.4632285
aa(lp680
I28
aI104
aF0.0
aF0.50869
aF0.1511125
aa(lp681
I28
aI105
aF0.0
aF0.49566999999999994
aF0.1511125
aa(lp682
I28
aI106
aF0.0
aF0.47824
aF0.1511125
aa(lp683
I28
aI107
aF0.0
aF0.47824
aF0.09749700000000001
aa(lp684
I28
aI108
aF0.0
aF0.45653999999999995
aF0.1316445
aa(lp685
I28
aI109
aF0.0
aF0.4522
aF0.09263
aaI0
a(lp686
I28
aI111
aF0.0
aF0.43043
aF0.0633495
aa(lp687
I28
aI112
aF0.0
aF0.43043
aF0.0
aa(lp688
I28
aI113
aF0.0
aF0.41741
aF0.0
aaI0
a(lp689
I28
aI115
aF0.017359999999999997
aF0.36084999999999995
aF0.0292805
aa(lp690
I28
aI116
aF0.14784
aF0.0
aF0.765532
aa(lp691
I28
aI117
aF0.026109999999999998
aF0.33039999999999997
aF0.0
aa(lp692
I28
aI118
aF0.026109999999999998
aF0.31738
aF0.0
aaI0
a(lp693
I28
aI120
aF0.06958
aF0.19130999999999998
aF0.19012700000000002
aaI0
a(lp694
I28
aI122
aF0.06089999999999999
aF0.21741999999999997
aF0.0
aa(lp695
I28
aI123
aF0.07826
aF0.17828999999999998
aF0.0
aaI0
a(lp696
I28
aI125
aF0.11738999999999998
aF0.06958
aF0.1219105
aa(lp697
I28
aI126
aF0.11305
aF0.09127999999999999
aF0.0
aa(lp698
I28
aI127
aF0.13474999999999998
aF0.03913
aF0.0244135
aa(lp699
I28
aI128
aF0.14784
aF0.0
aF0.04874850000000001
aaI0
aI0
aI0
aI0
aI0
aI0
aI0
aI0
aI0
aI0
aI0
aI0
aI0
aI0
aI0
aI0
aI0
aI0
aI0
aI0
aI0
aI0
aI0
aI0
aI0
aI0
aI0
aI0
aI0
aI0
aI0
aI0
aI0
aI0
aI0
aI0
aI0
aI0
aI0
aI0
aI0
aI0
aI0
aI0
aI0
aI0
aI0
aI0
aI0
aI0
aI0
a(lp700
I29
aI40
aF0.67823
aF0.45653999999999995
aF0.0
aa(lp701
I29
aI41
aF0.65653
aF0.47824
aF0.0
aa(lp702
I29
aI42
aF0.7
aF0.33914999999999995
aF0.38519950000000003
aaI0
aI0
aI0
a(lp703
I29
aI46
aF0.67823
aF0.29127
aF0.6582225
aa(lp704
I29
aI47
aF0.6435099999999999
aF0.35217
aF0.5509915
aa(lp705
I29
aI48
aF0.5739299999999999
aF0.49132999999999993
aF0.2145405
aaI0
a(lp706
I29
aI50
aF0.59563
aF0.39130000000000004
aF0.5509915
aaI0
a(lp707
I29
aI52
aF0.47824
aF0.62174
aF0.0
aaI0
aI0
a(lp708
I29
aI55
aF0.43910999999999994
aF0.63476
aF0.0390145
aa(lp709
I29
aI56
aF0.43910999999999994
aF0.6043799999999999
aF0.16092499999999998
aa(lp710
I29
aI57
aF0.47824
aF0.47824
aF0.516844
aa(lp711
I29
aI58
aF0.38695999999999997
aF0.67389
aF0.0
aaI0
a(lp712
I29
aI60
aF0.42175
aF0.5304599999999999
aF0.443682
aa(lp713
I29
aI61
aF0.34349
aF0.6913199999999999
aF0.0
aa(lp714
I29
aI62
aF0.33039999999999997
aF0.7
aF0.0
aaI0
a(lp715
I29
aI64
aF0.36519
aF0.5565
aF0.443682
aaI0
a(lp716
I29
aI66
aF0.40431999999999996
aF0.42608999999999997
aF0.785
aaI0
a(lp717
I29
aI68
aF0.31304
aF0.5695899999999999
aF0.443682
aa(lp718
I29
aI69
aF0.27825
aF0.62608
aF0.2925695
aa(lp719
I29
aI70
aF0.29568
aF0.5565
aF0.502243
aaI0
a(lp720
I29
aI72
aF0.28259
aF0.53914
aF0.5509915
aaI0
a(lp721
I29
aI74
aF0.20432999999999998
aF0.66521
aF0.21940750000000003
aa(lp722
I29
aI75
aF0.24345999999999998
aF0.5521599999999999
aF0.5314450000000001
aaI0
aI0
aI0
a(lp723
I29
aI79
aF0.25214
aF0.44344999999999996
aF0.785
aaI0
a(lp724
I29
aI81
aF0.20432999999999998
aF0.49132999999999993
aF0.6436215
aaI0
a(lp725
I29
aI83
aF0.21741999999999997
aF0.42608999999999997
aF0.785
aaI0
aI0
aI0
a(lp726
I29
aI87
aF0.05648999999999999
aF0.7
aF0.0
aaI0
a(lp727
I29
aI89
aF0.04781
aF0.68698
aF0.0
aaI0
aI0
aI0
a(lp728
I29
aI93
aF0.14784
aF0.36084999999999995
aF0.785
aaI0
a(lp729
I29
aI95
aF0.017359999999999997
aF0.6391
aF0.0
aa(lp730
I29
aI96
aF0.017359999999999997
aF0.6174
aF0.0292805
aa(lp731
I29
aI97
aF0.017359999999999997
aF0.5999699999999999
aF0.043881500000000004
aaI0
a(lp732
I29
aI99
aF0.10437
aF0.34349
aF0.6679565000000001
aa(lp733
I29
aI100
aF0.11738999999999998
aF0.30001999999999995
aF0.7362515
aa(lp734
I29
aI101
aF0.0
aF0.57827
aF0.0
aa(lp735
I29
aI102
aF0.0
aF0.5652499999999999
aF0.0
aa(lp736
I29
aI103
aF0.0
aF0.5521599999999999
aF0.0
aa(lp737
I29
aI104
aF0.0
aF0.53914
aF0.0
aa(lp738
I29
aI105
aF0.0
aF0.52612
aF0.0
aa(lp739
I29
aI106
aF0.0
aF0.51303
aF0.0
aa(lp740
I29
aI107
aF0.08694
aF0.26957
aF0.5509915
aaI0
aI0
aI0
a(lp741
I29
aI111
aF0.14784
aF0.07392
aF0.785
aaI0
a(lp742
I29
aI113
aF0.021769999999999998
aF0.39130000000000004
aF0.0
aa(lp743
I29
aI114
aF0.026109999999999998
aF0.37394
aF0.0
aa(lp744
I29
aI115
aF0.04347
aF0.31304
aF0.1121765
aaI0
aI0
a(lp745
I29
aI118
aF0.06958
aF0.21741999999999997
aF0.19012700000000002
aaI0
a(lp746
I29
aI120
aF0.06089999999999999
aF0.24779999999999996
aF0.0
aa(lp747
I29
aI121
aF0.14784
aF0.0
aF0.44854900000000003
aa(lp748
I29
aI122
aF0.14784
aF0.0
aF0.39006650000000004
aa(lp749
I29
aI123
aF0.14784
aF0.0
aF0.336451
aaI0
aI0
aI0
a(lp750
I29
aI127
aF0.15218
aF0.021769999999999998
aF0.0
aaI0
aI0
aI0
aI0
aI0
aI0
aI0
aI0
aI0
aI0
aI0
aI0
aI0
aI0
aI0
aI0
aI0
aI0
aI0
aI0
aI0
aI0
aI0
aI0
aI0
aI0
aI0
aI0
aI0
aI0
aI0
aI0
aI0
aI0
aI0
aI0
aI0
aI0
aI0
aI0
aI0
aI0
aI0
aI0
aI0
aI0
aI0
aI0
aI0
aI0
aI0
a(lp751
I30
aI39
aF0.7
aF0.42175
aF0.004867
aaI0
a(lp752
I30
aI41
aF0.67389
aF0.43477
aF0.0390145
aa(lp753
I30
aI42
aF0.7
aF0.33039999999999997
aF0.3754655
aaI0
a(lp754
I30
aI44
aF0.7
aF0.28259
aF0.5509915
aaI0
aI0
a(lp755
I30
aI47
aF0.7
aF0.21741999999999997
aF0.785
aaI0
a(lp756
I30
aI49
aF0.66521
aF0.25214
aF0.785
aaI0
aI0
a(lp757
I30
aI52
aF0.48699
aF0.59563
aF0.0
aaI0
aI0
a(lp758
I30
aI55
aF0.44344999999999996
aF0.62608
aF0.0
aa(lp759
I30
aI56
aF0.42608999999999997
aF0.63476
aF0.0
aaI0
a(lp760
I30
aI58
aF0.4739
aF0.4695599999999999
aF0.5071100000000001
aa(lp761
I30
aI59
aF0.38261999999999996
aF0.66087
aF0.0
aa(lp762
I30
aI60
aF0.36519
aF0.66955
aF0.0
aa(lp763
I30
aI61
aF0.39998
aF0.5521599999999999
aF0.336451
aaI0
a(lp764
I30
aI63
aF0.32605999999999996
aF0.6826399999999999
aF0.0
aa(lp765
I30
aI64
aF0.37827999999999995
aF0.5304599999999999
aF0.443682
aa(lp766
I30
aI65
aF0.30001999999999995
aF0.69566
aF0.0
aaI0
a(lp767
I30
aI67
aF0.27391
aF0.7
aF0.0
aaI0
a(lp768
I30
aI69
aF0.31304
aF0.5521599999999999
aF0.443682
aa(lp769
I30
aI70
aF0.32605999999999996
aF0.49566999999999994
aF0.5850605
aa(lp770
I30
aI71
aF0.29568
aF0.5347999999999999
aF0.502243
aa(lp771
I30
aI72
aF0.33914999999999995
aF0.42608999999999997
aF0.785
aa(lp772
I30
aI73
aF0.28259
aF0.51737
aF0.5509915
aa(lp773
I30
aI74
aF0.31738
aF0.42608999999999997
aF0.785
aa(lp774
I30
aI75
aF0.26088999999999996
aF0.51737
aF0.5509915
aaI0
a(lp775
I30
aI77
aF0.28692999999999996
aF0.41741
aF0.785
aaI0
aI0
aI0
aI0
a(lp776
I30
aI82
aF0.11305
aF0.7
aF0.0
aaI0
a(lp777
I30
aI84
aF0.1435
aF0.5652499999999999
aF0.3754655
aaI0
a(lp778
I30
aI86
aF0.07826
aF0.68698
aF0.0
aaI0
aI0
a(lp779
I30
aI89
aF0.06089999999999999
aF0.66521
aF0.0
aaI0
aI0
aI0
a(lp780
I30
aI93
aF0.03913
aF0.6391
aF0.0
aaI0
a(lp781
I30
aI95
aF0.10437
aF0.42608999999999997
aF0.521711
aaI0
a(lp782
I30
aI97
aF0.026109999999999998
aF0.5999699999999999
aF0.0
aa(lp783
I30
aI98
aF0.026109999999999998
aF0.58695
aF0.0
aa(lp784
I30
aI99
aF0.09562
aF0.38261999999999996
aF0.516844
aa(lp785
I30
aI100
aF0.10003
aF0.35217
aF0.5509915
aa(lp786
I30
aI101
aF0.11738999999999998
aF0.30001999999999995
aF0.6436215
aaI0
a(lp787
I30
aI103
aF0.11305
aF0.27825
aF0.624075
aaI0
a(lp788
I30
aI105
aF0.14784
aF0.16519999999999999
aF0.785
aa(lp789
I30
aI106
aF0.021769999999999998
aF0.48699
aF0.0
aa(lp790
I30
aI107
aF0.14784
aF0.13916
aF0.765532
aa(lp791
I30
aI108
aF0.14784
aF0.12607
aF0.7459855000000001
aa(lp792
I30
aI109
aF0.021769999999999998
aF0.44344999999999996
aF0.0
aa(lp793
I30
aI110
aF0.026109999999999998
aF0.42608999999999997
aF0.0
aaI0
aI0
a(lp794
I30
aI113
aF0.17828999999999998
aF0.0
aF0.785
aaI0
a(lp795
I30
aI115
aF0.16954
aF0.0
aF0.7021040000000001
aaI0
a(lp796
I30
aI117
aF0.06089999999999999
aF0.28692999999999996
aF0.0
aa(lp797
I30
aI118
aF0.06958
aF0.26522999999999997
aF0.0
aaI0
a(lp798
I30
aI120
aF0.07826
aF0.2261
aF0.0
aa(lp799
I30
aI121
aF0.11738999999999998
aF0.11738999999999998
aF0.170659
aaI0
a(lp800
I30
aI123
aF0.11305
aF0.13474999999999998
aF0.0
aa(lp801
I30
aI124
aF0.13474999999999998
aF0.08259999999999999
aF0.0244135
aa(lp802
I30
aI125
aF0.14784
aF0.05648999999999999
aF0.004867
aa(lp803
I30
aI126
aF0.16086
aF0.021769999999999998
aF0.0
aaI0
aI0
aI0
aI0
aI0
aI0
aI0
aI0
aI0
aI0
aI0
aI0
aI0
aI0
aI0
aI0
aI0
aI0
aI0
aI0
aI0
aI0
aI0
aI0
aI0
aI0
aI0
aI0
aI0
aI0
aI0
aI0
aI0
aI0
aI0
aI0
aI0
aI0
aI0
aI0
aI0
aI0
aI0
aI0
aI0
aI0
aI0
aI0
aI0
aI0
aI0
aI0
aI0
aI0
aI0
aI0
a(lp804
I31
aI43
aF0.66955
aF0.37394
aF0.23887550000000002
aa(lp805
I31
aI44
aF0.62174
aF0.47824
aF0.0
aaI0
aI0
a(lp806
I31
aI47
aF0.67823
aF0.25655
aF0.6582225
aa(lp807
I31
aI48
aF0.56084
aF0.5304599999999999
aF0.0
aaI0
aI0
a(lp808
I31
aI51
aF0.59563
aF0.35217
aF0.5509915
aa(lp809
I31
aI52
aF0.54782
aF0.43910999999999994
aF0.3754655
aa(lp810
I31
aI53
aF0.47824
aF0.59129
aF0.0
aaI0
aI0
a(lp811
I31
aI56
aF0.43910999999999994
aF0.5999699999999999
aF0.043881500000000004
aa(lp812
I31
aI57
aF0.46087999999999996
aF0.51737
aF0.3071705
aaI0
aI0
a(lp813
I31
aI60
aF0.47824
aF0.40873
aF0.6387545
aa(lp814
I31
aI61
aF0.36519
aF0.6521899999999999
aF0.0
aa(lp815
I31
aI62
aF0.34783
aF0.66087
aF0.0
aa(lp816
I31
aI63
aF0.46521999999999997
aF0.36519
aF0.785
aa(lp817
I31
aI64
aF0.32605999999999996
aF0.66521
aF0.0
aa(lp818
I31
aI65
aF0.43910999999999994
aF0.37394
aF0.785
aa(lp819
I31
aI66
aF0.30001999999999995
aF0.67389
aF0.0
aa(lp820
I31
aI67
aF0.39564
aF0.42175
aF0.706971
aa(lp821
I31
aI68
aF0.34783
aF0.49566999999999994
aF0.5314450000000001
aaI0
a(lp822
I31
aI70
aF0.31304
aF0.5304599999999999
aF0.443682
aa(lp823
I31
aI71
aF0.31738
aF0.49566999999999994
aF0.5509915
aa(lp824
I31
aI72
aF0.29568
aF0.51303
aF0.502243
aa(lp825
I31
aI73
aF0.25214
aF0.58695
aF0.31690450000000003
aa(lp826
I31
aI74
aF0.24345999999999998
aF0.58695
aF0.29743650000000005
aa(lp827
I31
aI75
aF0.23477999999999996
aF0.58695
aF0.29743650000000005
aa(lp828
I31
aI76
aF0.18263000000000001
aF0.6913199999999999
aF0.0
aa(lp829
I31
aI77
aF0.16954
aF0.69566
aF0.0
aa(lp830
I31
aI78
aF0.16519999999999999
aF0.68698
aF0.0
aa(lp831
I31
aI79
aF0.14784
aF0.6913199999999999
aF0.004867
aaI0
a(lp832
I31
aI81
aF0.13474999999999998
aF0.6826399999999999
aF0.0
aa(lp833
I31
aI82
aF0.25214
aF0.38695999999999997
aF0.785
aaI0
a(lp834
I31
aI84
aF0.11305
aF0.66955
aF0.0
aaI0
aI0
aI0
a(lp835
I31
aI88
aF0.11738999999999998
aF0.5521599999999999
aF0.2877025
aaI0
a(lp836
I31
aI90
aF0.06958
aF0.6391
aF0.0
aaI0
a(lp837
I31
aI92
aF0.06089999999999999
aF0.62608
aF0.0
aaI0
a(lp838
I31
aI94
aF0.17388
aF0.30001999999999995
aF0.7801330000000001
aa(lp839
I31
aI95
aF0.12172999999999999
aF0.40431999999999996
aF0.516844
aa(lp840
I31
aI96
aF0.06958
aF0.5217099999999999
aF0.19012700000000002
aa(lp841
I31
aI97
aF0.06958
aF0.50869
aF0.19012700000000002
aa(lp842
I31
aI98
aF0.12172999999999999
aF0.35217
aF0.5509915
aaI0
a(lp843
I31
aI100
aF0.06089999999999999
aF0.4739
aF0.19499400000000003
aaI0
a(lp844
I31
aI102
aF0.11738999999999998
aF0.30001999999999995
aF0.5558585
aa(lp845
I31
aI103
aF0.06089999999999999
aF0.43477
aF0.19499400000000003
aaI0
aI0
a(lp846
I31
aI106
aF0.06089999999999999
aF0.39130000000000004
aF0.19499400000000003
aa(lp847
I31
aI107
aF0.03913
aF0.44786
aF0.0
aa(lp848
I31
aI108
aF0.14784
aF0.13916
aF0.6875030000000001
aaI0
a(lp849
I31
aI110
aF0.14784
aF0.12607
aF0.628942
aa(lp850
I31
aI111
aF0.06958
aF0.31738
aF0.19012700000000002
aaI0
a(lp851
I31
aI113
aF0.10003
aF0.22176
aF0.2925695
aa(lp852
I31
aI114
aF0.06089999999999999
aF0.33039999999999997
aF0.0
aa(lp853
I31
aI115
aF0.06958
aF0.30436
aF0.0
aa(lp854
I31
aI116
aF0.10003
aF0.20866999999999997
aF0.19012700000000002
aa(lp855
I31
aI117
aF0.11738999999999998
aF0.14784
aF0.2877025
aaI0
a(lp856
I31
aI119
aF0.16954
aF0.0
aF0.44854900000000003
aa(lp857
I31
aI120
aF0.16954
aF0.0
aF0.40466749999999996
aa(lp858
I31
aI121
aF0.11305
aF0.16086
aF0.0
aa(lp859
I31
aI122
aF0.16954
aF0.0
aF0.2925695
aaI0
a(lp860
I31
aI124
aF0.15218
aF0.06524
aF0.0
aaI0
aI0
aI0
aI0
aI0
aI0
aI0
aI0
aI0
aI0
aI0
aI0
aI0
aI0
aI0
aI0
aI0
aI0
aI0
aI0
aI0
aI0
aI0
aI0
aI0
aI0
aI0
aI0
aI0
aI0
aI0
aI0
aI0
aI0
aI0
aI0
aI0
aI0
aI0
aI0
aI0
aI0
aI0
aI0
aI0
aI0
aI0
aI0
aI0
aI0
aI0
aI0
aI0
aI0
aI0
aI0
aI0
aI0
a(lp861
I32
aI43
aF0.66955
aF0.37394
aF0.19499400000000003
aa(lp862
I32
aI44
aF0.63042
aF0.45653999999999995
aF0.0
aaI0
aI0
a(lp863
I32
aI47
aF0.58261
aF0.49566999999999994
aF0.0
aa(lp864
I32
aI48
aF0.7
aF0.18697
aF0.785
aa(lp865
I32
aI49
aF0.6478499999999999
aF0.27825
aF0.624075
aa(lp866
I32
aI50
aF0.66521
aF0.21301
aF0.785
aaI0
a(lp867
I32
aI52
aF0.5565
aF0.42175
aF0.35591900000000004
aaI0
a(lp868
I32
aI54
aF0.47824
aF0.5652499999999999
aF0.0244135
aa(lp869
I32
aI55
aF0.46087999999999996
aF0.58261
aF0.0
aa(lp870
I32
aI56
aF0.44344999999999996
aF0.59563
aF0.0
aa(lp871
I32
aI57
aF0.43910999999999994
aF0.58261
aF0.043881500000000004
aaI0
a(lp872
I32
aI59
aF0.47824
aF0.42608999999999997
aF0.516844
aa(lp873
I32
aI60
aF0.38695999999999997
aF0.62608
aF0.0
aaI0
aI0
a(lp874
I32
aI63
aF0.34783
aF0.6435099999999999
aF0.0
aaI0
aI0
a(lp875
I32
aI66
aF0.3087
aF0.65653
aF0.0
aa(lp876
I32
aI67
aF0.39998
aF0.40873
aF0.6728235
aaI0
a(lp877
I32
aI69
aF0.39564
aF0.37827999999999995
aF0.7508525
aaI0
aI0
a(lp878
I32
aI72
aF0.27825
aF0.5652499999999999
aF0.2925695
aa(lp879
I32
aI73
aF0.35217
aF0.37394
aF0.785
aa(lp880
I32
aI74
aF0.21741999999999997
aF0.66955
aF0.0
aa(lp881
I32
aI75
aF0.25214
aF0.5521599999999999
aF0.331584
aa(lp882
I32
aI76
aF0.32172
aF0.37394
aF0.785
aa(lp883
I32
aI77
aF0.29568
aF0.40431999999999996
aF0.7021040000000001
aa(lp884
I32
aI78
aF0.29568
aF0.38695999999999997
aF0.7557195
aa(lp885
I32
aI79
aF0.16519999999999999
aF0.66955
aF0.0
aa(lp886
I32
aI80
aF0.18697
aF0.57827
aF0.258422
aa(lp887
I32
aI81
aF0.14784
aF0.66087
aF0.004867
aaI0
a(lp888
I32
aI83
aF0.13474999999999998
aF0.6521899999999999
aF0.0
aa(lp889
I32
aI84
aF0.25214
aF0.34783
aF0.785
aaI0
a(lp890
I32
aI86
aF0.11305
aF0.6391
aF0.0
aaI0
a(lp891
I32
aI88
aF0.17388
aF0.43477
aF0.536312
aa(lp892
I32
aI89
aF0.18697
aF0.39130000000000004
aF0.604607
aaI0
aI0
a(lp893
I32
aI92
aF0.07826
aF0.5999699999999999
aF0.0
aaI0
a(lp894
I32
aI94
aF0.06958
aF0.58695
aF0.0
aa(lp895
I32
aI95
aF0.17388
aF0.30001999999999995
aF0.69237
aa(lp896
I32
aI96
aF0.1435
aF0.35217
aF0.5509915
aa(lp897
I32
aI97
aF0.06089999999999999
aF0.5565
aF0.0
aa(lp898
I32
aI98
aF0.06089999999999999
aF0.54348
aF0.0
aaI0
aI0
aI0
aI0
aI0
aI0
aI0
aI0
aI0
aI0
a(lp899
I32
aI109
aF0.06089999999999999
aF0.39564
aF0.0
aa(lp900
I32
aI110
aF0.06089999999999999
aF0.38261999999999996
aF0.0
aa(lp901
I32
aI111
aF0.19999
aF0.0
aF0.765532
aa(lp902
I32
aI112
aF0.14784
aF0.12607
aF0.4875635
aa(lp903
I32
aI113
aF0.11738999999999998
aF0.19999
aF0.2877025
aa(lp904
I32
aI114
aF0.07826
aF0.3087
aF0.0
aa(lp905
I32
aI115
aF0.14784
aF0.10003
aF0.429081
aaI0
aI0
a(lp906
I32
aI118
aF0.10437
aF0.21741999999999997
aF0.0
aa(lp907
I32
aI119
aF0.13916
aF0.11738999999999998
aF0.170659
aaI0
a(lp908
I32
aI121
aF0.13474999999999998
aF0.13041
aF0.0244135
aa(lp909
I32
aI122
aF0.14784
aF0.10003
aF0.0
aaI0
a(lp910
I32
aI124
aF0.18263000000000001
aF0.021769999999999998
aF0.0
aaI0
aI0
aI0
aI0
aI0
aI0
aI0
aI0
aI0
aI0
aI0
aI0
aI0
aI0
aI0
aI0
aI0
aI0
aI0
aI0
aI0
aI0
aI0
aI0
aI0
aI0
aI0
aI0
aI0
aI0
aI0
aI0
aI0
aI0
aI0
aI0
aI0
aI0
aI0
aI0
aI0
aI0
aI0
aI0
aI0
aI0
aI0
aI0
aI0
aI0
aI0
aI0
aI0
aI0
aI0
aI0
aI0
a(lp911
I33
aI42
aF0.67389
aF0.39564
aF0.0390145
aa(lp912
I33
aI43
aF0.66087
aF0.41306999999999994
aF0.0
aaI0
a(lp913
I33
aI45
aF0.62608
aF0.44344999999999996
aF0.0
aa(lp914
I33
aI46
aF0.7
aF0.21741999999999997
aF0.614341
aaI0
aI0
a(lp915
I33
aI49
aF0.56084
aF0.50001
aF0.0
aa(lp916
I33
aI50
aF0.5739299999999999
aF0.43043
aF0.2145405
aa(lp917
I33
aI51
aF0.5304599999999999
aF0.5217099999999999
aF0.0
aa(lp918
I33
aI52
aF0.51737
aF0.5304599999999999
aF0.0
aaI0
a(lp919
I33
aI54
aF0.54348
aF0.39564
aF0.41448
aa(lp920
I33
aI55
aF0.4695599999999999
aF0.5652499999999999
aF0.0
aa(lp921
I33
aI56
aF0.58261
aF0.26088999999999996
aF0.785
aa(lp922
I33
aI57
aF0.49566999999999994
aF0.43910999999999994
aF0.3754655
aa(lp923
I33
aI58
aF0.42608999999999997
aF0.58695
aF0.0
aaI0
a(lp924
I33
aI60
aF0.47824
aF0.40431999999999996
aF0.516844
aa(lp925
I33
aI61
aF0.38695999999999997
aF0.60872
aF0.0
aaI0
a(lp926
I33
aI63
aF0.39998
aF0.50435
aF0.336451
aa(lp927
I33
aI64
aF0.34349
aF0.62608
aF0.0
aaI0
a(lp928
I33
aI66
aF0.31738
aF0.63476
aF0.0
aa(lp929
I33
aI67
aF0.3087
aF0.63476
aF0.0
aaI0
a(lp930
I33
aI69
aF0.39564
aF0.37827999999999995
aF0.69237
aa(lp931
I33
aI70
aF0.34783
aF0.4522
aF0.5314450000000001
aaI0
a(lp932
I33
aI72
aF0.31304
aF0.48699
aF0.443682
aa(lp933
I33
aI73
aF0.29568
aF0.50001
aF0.41448
aa(lp934
I33
aI74
aF0.29568
aF0.48257999999999995
aF0.4632285
aa(lp935
I33
aI75
aF0.21741999999999997
aF0.6478499999999999
aF0.0
aa(lp936
I33
aI76
aF0.29568
aF0.43043
aF0.5850605
aa(lp937
I33
aI77
aF0.20432999999999998
aF0.63042
aF0.0536155
aa(lp938
I33
aI78
aF0.29568
aF0.38695999999999997
aF0.682636
aa(lp939
I33
aI79
aF0.18263000000000001
aF0.6435099999999999
aF0.0
aa(lp940
I33
aI80
aF0.16954
aF0.6435099999999999
aF0.0
aa(lp941
I33
aI81
aF0.16519999999999999
aF0.6391
aF0.0
aaI0
a(lp942
I33
aI83
aF0.14784
aF0.63042
aF0.004867
aa(lp943
I33
aI84
aF0.23043999999999998
aF0.39998
aF0.614341
aa(lp944
I33
aI85
aF0.23043999999999998
aF0.38261999999999996
aF0.6387545
aaI0
aI0
aI0
aI0
a(lp945
I33
aI90
aF0.10437
aF0.59129
aF0.0
aaI0
a(lp946
I33
aI92
aF0.1435
aF0.44344999999999996
aF0.3754655
aa(lp947
I33
aI93
aF0.15652
aF0.39130000000000004
aF0.4632285
aa(lp948
I33
aI94
aF0.14784
aF0.39130000000000004
aF0.4632285
aa(lp949
I33
aI95
aF0.11738999999999998
aF0.4522
aF0.2877025
aa(lp950
I33
aI96
aF0.07826
aF0.54782
aF0.0
aa(lp951
I33
aI97
aF0.07826
aF0.5304599999999999
aF0.0
aaI0
aI0
a(lp952
I33
aI100
aF0.06958
aF0.50435
aF0.0
aa(lp953
I33
aI101
aF0.06958
aF0.49132999999999993
aF0.0
aa(lp954
I33
aI102
aF0.06958
aF0.47824
aF0.0
aa(lp955
I33
aI103
aF0.06958
aF0.46087999999999996
aF0.0
aa(lp956
I33
aI104
aF0.06958
aF0.4522
aF0.0
aa(lp957
I33
aI105
aF0.06958
aF0.43477
aF0.0
aaI0
aI0
a(lp958
I33
aI108
aF0.07826
aF0.38695999999999997
aF0.0
aa(lp959
I33
aI109
aF0.07826
aF0.37394
aF0.0
aa(lp960
I33
aI110
aF0.07826
aF0.36084999999999995
aF0.0
aa(lp961
I33
aI111
aF0.12172999999999999
aF0.22176
aF0.2925695
aa(lp962
I33
aI112
aF0.10003
aF0.28692999999999996
aF0.082896
aa(lp963
I33
aI113
aF0.14784
aF0.13916
aF0.3803325
aa(lp964
I33
aI114
aF0.19999
aF0.0
aF0.5850605
aa(lp965
I33
aI115
aF0.14784
aF0.12607
aF0.3023035
aa(lp966
I33
aI116
aF0.11305
aF0.23477999999999996
aF0.0
aa(lp967
I33
aI117
aF0.14784
aF0.12607
aF0.20480650000000003
aa(lp968
I33
aI118
aF0.14784
aF0.12607
aF0.12677750000000002
aa(lp969
I33
aI119
aF0.13474999999999998
aF0.16086
aF0.0
aa(lp970
I33
aI120
aF0.14784
aF0.12607
aF0.009734
aa(lp971
I33
aI121
aF0.18697
aF0.017359999999999997
aF0.170659
aa(lp972
I33
aI122
aF0.16954
aF0.06958
aF0.0
aa(lp973
I33
aI123
aF0.18263000000000001
aF0.03913
aF0.0
aa(lp974
I33
aI124
aF0.19999
aF0.0
aF0.0
aaI0
aI0
aI0
aI0
aI0
aI0
aI0
aI0
aI0
aI0
aI0
aI0
aI0
aI0
aI0
aI0
aI0
aI0
aI0
aI0
aI0
aI0
aI0
aI0
aI0
aI0
aI0
aI0
aI0
aI0
aI0
aI0
aI0
aI0
aI0
aI0
aI0
aI0
aI0
aI0
aI0
aI0
aI0
aI0
aI0
aI0
aI0
aI0
aI0
aI0
aI0
aI0
aI0
aI0
aI0
aI0
a(lp975
I34
aI41
aF0.7
aF0.36519
aF0.0
aaI0
aI0
a(lp976
I34
aI44
aF0.7
aF0.26522999999999997
aF0.3754655
aaI0
aI0
a(lp977
I34
aI47
aF0.7
aF0.19565000000000002
aF0.614341
aaI0
a(lp978
I34
aI49
aF0.5695899999999999
aF0.47824
aF0.0
aa(lp979
I34
aI50
aF0.6391
aF0.26957
aF0.5509915
aa(lp980
I34
aI51
aF0.63476
aF0.25214
aF0.614341
aaI0
a(lp981
I34
aI53
aF0.6435099999999999
aF0.19130999999999998
aF0.785
aa(lp982
I34
aI54
aF0.59563
aF0.27825
aF0.624075
aa(lp983
I34
aI55
aF0.47824
aF0.53914
aF0.0
aa(lp984
I34
aI56
aF0.4695599999999999
aF0.54348
aF0.0
aa(lp985
I34
aI57
aF0.58261
aF0.23912
aF0.785
aa(lp986
I34
aI58
aF0.43910999999999994
aF0.5521599999999999
aF0.043881500000000004
aa(lp987
I34
aI59
aF0.42608999999999997
aF0.5695899999999999
aF0.0
aaI0
aI0
a(lp988
I34
aI62
aF0.38695999999999997
aF0.58695
aF0.0
aaI0
a(lp989
I34
aI64
aF0.39998
aF0.48257999999999995
aF0.336451
aaI0
aI0
a(lp990
I34
aI67
aF0.31738
aF0.6174
aF0.0
aa(lp991
I34
aI68
aF0.3087
aF0.6174
aF0.0
aa(lp992
I34
aI69
aF0.39564
aF0.37394
aF0.6484885
aaI0
aI0
a(lp993
I34
aI72
aF0.26522999999999997
aF0.62174
aF0.0
aa(lp994
I34
aI73
aF0.34349
aF0.40431999999999996
aF0.5850605
aa(lp995
I34
aI74
aF0.24345999999999998
aF0.62608
aF0.0
aaI0
aI0
aI0
a(lp996
I34
aI78
aF0.28259
aF0.42175
aF0.5509915
aaI0
aI0
a(lp997
I34
aI81
aF0.26088999999999996
aF0.40873
aF0.5509915
aa(lp998
I34
aI82
aF0.20866999999999997
aF0.50869
aF0.2925695
aaI0
a(lp999
I34
aI84
aF0.15218
aF0.60872
aF0.0
aa(lp1000
I34
aI85
aF0.14784
aF0.5999699999999999
aF0.004867
aa(lp1001
I34
aI86
aF0.1435
aF0.59563
aF0.0
aa(lp1002
I34
aI87
aF0.13474999999999998
aF0.59129
aF0.0
aaI0
aI0
aI0
a(lp1003
I34
aI91
aF0.19565000000000002
aF0.35217
aF0.5509915
aa(lp1004
I34
aI92
aF0.16086
aF0.42175
aF0.35591900000000004
aa(lp1005
I34
aI93
aF0.10437
aF0.5521599999999999
aF0.0
aa(lp1006
I34
aI94
aF0.10437
aF0.5347999999999999
aF0.0
aa(lp1007
I34
aI95
aF0.10003
aF0.5304599999999999
aF0.0
aa(lp1008
I34
aI96
aF0.17388
aF0.3087
aF0.536312
aaI0
aI0
aI0
a(lp1009
I34
aI100
aF0.10437
aF0.42608999999999997
aF0.1511125
aaI0
aI0
a(lp1010
I34
aI103
aF0.10003
aF0.40431999999999996
aF0.08776300000000001
aa(lp1011
I34
aI104
aF0.1435
aF0.26957
aF0.3754655
aa(lp1012
I34
aI105
aF0.20432999999999998
aF0.10437
aF0.6875030000000001
aa(lp1013
I34
aI106
aF0.17388
aF0.16519999999999999
aF0.536312
aa(lp1014
I34
aI107
aF0.1435
aF0.23043999999999998
aF0.3754655
aaI0
aI0
a(lp1015
I34
aI110
aF0.22176
aF0.0
aF0.7118380000000001
aa(lp1016
I34
aI111
aF0.10437
aF0.31304
aF0.0
aaI0
a(lp1017
I34
aI113
aF0.11738999999999998
aF0.26522999999999997
aF0.0
aa(lp1018
I34
aI114
aF0.16954
aF0.10437
aF0.336451
aa(lp1019
I34
aI115
aF0.1435
aF0.17828999999999998
aF0.1121765
aa(lp1020
I34
aI116
aF0.14784
aF0.16519999999999999
aF0.082896
aaI0
a(lp1021
I34
aI118
aF0.14784
aF0.15652
aF0.004867
aa(lp1022
I34
aI119
aF0.16519999999999999
aF0.11738999999999998
aF0.0
aaI0
a(lp1023
I34
aI121
aF0.18263000000000001
aF0.06524
aF0.0
aaI0
aI0
aI0
aI0
aI0
aI0
aI0
aI0
aI0
aI0
aI0
aI0
aI0
aI0
aI0
aI0
aI0
aI0
aI0
aI0
aI0
aI0
aI0
aI0
aI0
aI0
aI0
aI0
aI0
aI0
aI0
aI0
aI0
aI0
aI0
aI0
aI0
aI0
aI0
aI0
aI0
aI0
aI0
aI0
aI0
aI0
aI0
aI0
aI0
aI0
aI0
aI0
aI0
aI0
aI0
aI0
aI0
aI0
aI0
aI0
aI0
aI0
aI0
aI0
aI0
aI0
a(lp1024
I35
aI48
aF0.60872
aF0.40431999999999996
aF0.08776300000000001
aaI0
a(lp1025
I35
aI50
aF0.56084
aF0.4695599999999999
aF0.0
aa(lp1026
I35
aI51
aF0.5739299999999999
aF0.39998
aF0.2145405
aa(lp1027
I35
aI52
aF0.66521
aF0.15652
aF0.785
aaI0
aI0
a(lp1028
I35
aI55
aF0.57827
aF0.29127
aF0.5655925
aa(lp1029
I35
aI56
aF0.47824
aF0.5217099999999999
aF0.0
aa(lp1030
I35
aI57
aF0.46087999999999996
aF0.5347999999999999
aF0.0
aa(lp1031
I35
aI58
aF0.5739299999999999
aF0.23043999999999998
aF0.775266
aa(lp1032
I35
aI59
aF0.43910999999999994
aF0.5347999999999999
aF0.043881500000000004
aa(lp1033
I35
aI60
aF0.46087999999999996
aF0.44786
aF0.3071705
aa(lp1034
I35
aI61
aF0.51737
aF0.28692999999999996
aF0.706971
aa(lp1035
I35
aI62
aF0.39564
aF0.5695899999999999
aF0.0
aa(lp1036
I35
aI63
aF0.39564
aF0.5347999999999999
aF0.102364
aa(lp1037
I35
aI64
aF0.39564
aF0.50869
aF0.19499400000000003
aa(lp1038
I35
aI65
aF0.39998
aF0.46521999999999997
aF0.336451
aa(lp1039
I35
aI66
aF0.34783
aF0.58261
aF0.0
aa(lp1040
I35
aI67
aF0.37827999999999995
aF0.46521999999999997
aF0.341318
aaI0
a(lp1041
I35
aI69
aF0.39564
aF0.37827999999999995
aF0.5753265000000001
aa(lp1042
I35
aI70
aF0.30001999999999995
aF0.59563
aF0.0
aaI0
aI0
a(lp1043
I35
aI73
aF0.26522999999999997
aF0.6043799999999999
aF0.0
aa(lp1044
I35
aI74
aF0.34349
aF0.38261999999999996
aF0.5850605
aaI0
a(lp1045
I35
aI76
aF0.25214
aF0.5521599999999999
aF0.1511125
aa(lp1046
I35
aI77
aF0.25214
aF0.52612
aF0.22427450000000002
aa(lp1047
I35
aI78
aF0.21741999999999997
aF0.5999699999999999
aF0.0
aaI0
a(lp1048
I35
aI80
aF0.28259
aF0.38695999999999997
aF0.5509915
aa(lp1049
I35
aI81
aF0.19130999999999998
aF0.59563
aF0.0
aa(lp1050
I35
aI82
aF0.20432999999999998
aF0.5304599999999999
aF0.17552600000000002
aa(lp1051
I35
aI83
aF0.26088999999999996
aF0.37394
aF0.5509915
aa(lp1052
I35
aI84
aF0.16954
aF0.58695
aF0.0
aa(lp1053
I35
aI85
aF0.23043999999999998
aF0.39998
aF0.4632285
aa(lp1054
I35
aI86
aF0.23043999999999998
aF0.38261999999999996
aF0.516844
aa(lp1055
I35
aI87
aF0.21741999999999997
aF0.39130000000000004
aF0.4632285
aa(lp1056
I35
aI88
aF0.2261
aF0.35217
aF0.5509915
aaI0
aI0
aI0
a(lp1057
I35
aI92
aF0.25214
aF0.21301
aF0.785
aa(lp1058
I35
aI93
aF0.25214
aF0.19565000000000002
aF0.785
aaI0
aI0
a(lp1059
I35
aI96
aF0.11305
aF0.49566999999999994
aF0.0
aa(lp1060
I35
aI97
aF0.11305
aF0.48699
aF0.0
aa(lp1061
I35
aI98
aF0.11305
aF0.4739
aF0.0
aaI0
a(lp1062
I35
aI100
aF0.10437
aF0.45653999999999995
aF0.0
aaI0
aI0
a(lp1063
I35
aI103
aF0.10437
aF0.41741
aF0.0
aa(lp1064
I35
aI104
aF0.10437
aF0.40431999999999996
aF0.0
aaI0
a(lp1065
I35
aI106
aF0.24779999999999996
aF0.0
aF0.785
aa(lp1066
I35
aI107
aF0.12607
aF0.31304
aF0.1121765
aa(lp1067
I35
aI108
aF0.15218
aF0.22176
aF0.2925695
aa(lp1068
I35
aI109
aF0.11305
aF0.32605999999999996
aF0.0
aaI0
a(lp1069
I35
aI111
aF0.14784
aF0.20866999999999997
aF0.19012700000000002
aa(lp1070
I35
aI112
aF0.1435
aF0.22176
aF0.1121765
aa(lp1071
I35
aI113
aF0.1435
aF0.20866999999999997
aF0.1121765
aaI0
a(lp1072
I35
aI115
aF0.14784
aF0.19565000000000002
aF0.004867
aa(lp1073
I35
aI116
aF0.18697
aF0.07392
aF0.23400849999999998
aa(lp1074
I35
aI117
aF0.16519999999999999
aF0.14784
aF0.0
aa(lp1075
I35
aI118
aF0.16954
aF0.12607
aF0.0
aa(lp1076
I35
aI119
aF0.21301
aF0.0
aF0.2145405
aaI0
a(lp1077
I35
aI121
aF0.21301
aF0.021769999999999998
aF0.0
aaI0
aI0
aI0
aI0
aI0
aI0
aI0
aI0
aI0
aI0
aI0
aI0
aI0
aI0
aI0
aI0
aI0
aI0
aI0
aI0
aI0
aI0
aI0
aI0
aI0
aI0
aI0
aI0
aI0
aI0
aI0
aI0
aI0
aI0
aI0
aI0
aI0
aI0
aI0
aI0
aI0
aI0
aI0
aI0
aI0
aI0
aI0
aI0
aI0
aI0
aI0
aI0
aI0
aI0
aI0
aI0
aI0
aI0
aI0
aI0
a(lp1078
I36
aI42
aF0.7
aF0.33481
aF0.0
aaI0
a(lp1079
I36
aI44
aF0.67389
aF0.34783
aF0.0390145
aaI0
aI0
aI0
a(lp1080
I36
aI48
aF0.7
aF0.16519999999999999
aF0.614341
aaI0
a(lp1081
I36
aI50
aF0.67823
aF0.16954
aF0.6582225
aa(lp1082
I36
aI51
aF0.56084
aF0.4522
aF0.0
aaI0
aI0
aI0
a(lp1083
I36
aI55
aF0.50001
aF0.49132999999999993
aF0.0
aaI0
a(lp1084
I36
aI57
aF0.47824
aF0.50001
aF0.0244135
aa(lp1085
I36
aI58
aF0.46087999999999996
aF0.51737
aF0.0
aa(lp1086
I36
aI59
aF0.44786
aF0.5217099999999999
aF0.0
aa(lp1087
I36
aI60
aF0.47824
aF0.40873
aF0.346185
aaI0
a(lp1088
I36
aI62
aF0.47824
aF0.35217
aF0.516844
aa(lp1089
I36
aI63
aF0.44344999999999996
aF0.41306999999999994
aF0.3754655
aa(lp1090
I36
aI64
aF0.43477
aF0.41306999999999994
aF0.3754655
aa(lp1091
I36
aI65
aF0.44786
aF0.35217
aF0.5509915
aa(lp1092
I36
aI66
aF0.43910999999999994
aF0.35217
aF0.5509915
aa(lp1093
I36
aI67
aF0.34349
aF0.5695899999999999
aF0.0
aaI0
a(lp1094
I36
aI69
aF0.32605999999999996
aF0.5695899999999999
aF0.0
aa(lp1095
I36
aI70
aF0.3087
aF0.57827
aF0.0
aa(lp1096
I36
aI71
aF0.30001999999999995
aF0.57827
aF0.0
aa(lp1097
I36
aI72
aF0.29127
aF0.57827
aF0.0
aa(lp1098
I36
aI73
aF0.35650999999999994
aF0.38261999999999996
aF0.516844
aa(lp1099
I36
aI74
aF0.34783
aF0.37827999999999995
aF0.5314450000000001
aa(lp1100
I36
aI75
aF0.33481
aF0.38261999999999996
aF0.516844
aa(lp1101
I36
aI76
aF0.31304
aF0.41306999999999994
aF0.443682
aa(lp1102
I36
aI77
aF0.24345999999999998
aF0.5739299999999999
aF0.0
aa(lp1103
I36
aI78
aF0.3087
aF0.38261999999999996
aF0.516844
aa(lp1104
I36
aI79
aF0.29568
aF0.38261999999999996
aF0.516844
aaI0
aI0
a(lp1105
I36
aI82
aF0.28259
aF0.35650999999999994
aF0.5509915
aa(lp1106
I36
aI83
aF0.27391
aF0.35217
aF0.5509915
aa(lp1107
I36
aI84
aF0.26522999999999997
aF0.35217
aF0.5509915
aa(lp1108
I36
aI85
aF0.26088999999999996
aF0.34349
aF0.5509915
aa(lp1109
I36
aI86
aF0.22176
aF0.41306999999999994
aF0.3754655
aa(lp1110
I36
aI87
aF0.24779999999999996
aF0.33481
aF0.5314450000000001
aa(lp1111
I36
aI88
aF0.16519999999999999
aF0.5347999999999999
aF0.0
aaI0
a(lp1112
I36
aI90
aF0.24345999999999998
aF0.27825
aF0.624075
aa(lp1113
I36
aI91
aF0.14784
aF0.51737
aF0.004867
aa(lp1114
I36
aI92
aF0.14784
aF0.50435
aF0.004867
aaI0
a(lp1115
I36
aI94
aF0.13474999999999998
aF0.49566999999999994
aF0.0
aa(lp1116
I36
aI95
aF0.1435
aF0.44786
aF0.1121765
aa(lp1117
I36
aI96
aF0.13474999999999998
aF0.4695599999999999
aF0.0
aaI0
aI0
a(lp1118
I36
aI99
aF0.17388
aF0.30001999999999995
aF0.365653
aaI0
aI0
aI0
aI0
aI0
a(lp1119
I36
aI105
aF0.26088999999999996
aF0.0
aF0.785
aa(lp1120
I36
aI106
aF0.1435
aF0.30001999999999995
aF0.1121765
aaI0
a(lp1121
I36
aI108
aF0.13474999999999998
aF0.3087
aF0.0
aa(lp1122
I36
aI109
aF0.13474999999999998
aF0.29568
aF0.0
aaI0
a(lp1123
I36
aI111
aF0.14784
aF0.25214
aF0.004867
aa(lp1124
I36
aI112
aF0.14784
aF0.23912
aF0.004867
aa(lp1125
I36
aI113
aF0.23043999999999998
aF0.0
aF0.45341600000000004
aa(lp1126
I36
aI114
aF0.16519999999999999
aF0.18697
aF0.0
aa(lp1127
I36
aI115
aF0.16519999999999999
aF0.17388
aF0.0
aa(lp1128
I36
aI116
aF0.18263000000000001
aF0.13474999999999998
aF0.0
aa(lp1129
I36
aI117
aF0.18263000000000001
aF0.12172999999999999
aF0.0
aa(lp1130
I36
aI118
aF0.20432999999999998
aF0.06524
aF0.0536155
aaI0
a(lp1131
I36
aI120
aF0.21741999999999997
aF0.030449999999999994
aF0.0
aaI0
aI0
aI0
aI0
aI0
aI0
aI0
aI0
aI0
aI0
aI0
aI0
aI0
aI0
aI0
aI0
aI0
aI0
aI0
aI0
aI0
aI0
aI0
aI0
aI0
aI0
aI0
aI0
aI0
aI0
aI0
aI0
aI0
aI0
aI0
aI0
aI0
aI0
aI0
aI0
aI0
aI0
aI0
aI0
aI0
aI0
aI0
aI0
aI0
aI0
aI0
aI0
aI0
aI0
aI0
aI0
aI0
aI0
aI0
aI0
aI0
aI0
aI0
aI0
a(lp1132
I37
aI45
aF0.66087
aF0.35650999999999994
aF0.0
aa(lp1133
I37
aI46
aF0.7
aF0.21301
aF0.3754655
aaI0
aI0
a(lp1134
I37
aI49
aF0.7
aF0.1435
aF0.614341
aaI0
aI0
a(lp1135
I37
aI52
aF0.5521599999999999
aF0.44344999999999996
aF0.0
aa(lp1136
I37
aI53
aF0.58261
aF0.33481
aF0.29743650000000005
aaI0
aI0
a(lp1137
I37
aI56
aF0.50001
aF0.4739
aF0.0
aa(lp1138
I37
aI57
aF0.5652499999999999
aF0.26957
aF0.5509915
aa(lp1139
I37
aI58
aF0.5739299999999999
aF0.23043999999999998
aF0.6533555000000001
aaI0
a(lp1140
I37
aI60
aF0.44344999999999996
aF0.50869
aF0.0
aa(lp1141
I37
aI61
aF0.43910999999999994
aF0.49566999999999994
aF0.043881500000000004
aaI0
a(lp1142
I37
aI63
aF0.40431999999999996
aF0.5304599999999999
aF0.0
aa(lp1143
I37
aI64
aF0.39564
aF0.5304599999999999
aF0.0
aaI0
a(lp1144
I37
aI66
aF0.44786
aF0.33481
aF0.526578
aaI0
a(lp1145
I37
aI68
aF0.34783
aF0.54348
aF0.0
aa(lp1146
I37
aI69
aF0.38695999999999997
aF0.41306999999999994
aF0.3754655
aa(lp1147
I37
aI70
aF0.32605999999999996
aF0.5521599999999999
aF0.0
aa(lp1148
I37
aI71
aF0.36519
aF0.41306999999999994
aF0.3754655
aa(lp1149
I37
aI72
aF0.36519
aF0.39130000000000004
aF0.443682
aa(lp1150
I37
aI73
aF0.34783
aF0.41306999999999994
aF0.3754655
aa(lp1151
I37
aI74
aF0.33914999999999995
aF0.41306999999999994
aF0.3754655
aa(lp1152
I37
aI75
aF0.32605999999999996
aF0.41306999999999994
aF0.3754655
aa(lp1153
I37
aI76
aF0.26522999999999997
aF0.5565
aF0.0
aa(lp1154
I37
aI77
aF0.34349
aF0.32605999999999996
aF0.5850605
aa(lp1155
I37
aI78
aF0.31304
aF0.38261999999999996
aF0.443682
aa(lp1156
I37
aI79
aF0.24345999999999998
aF0.54782
aF0.0
aa(lp1157
I37
aI80
aF0.35650999999999994
aF0.23477999999999996
aF0.785
aaI0
aI0
aI0
a(lp1158
I37
aI84
aF0.28259
aF0.32172
aF0.5509915
aaI0
a(lp1159
I37
aI86
aF0.29568
aF0.24779999999999996
aF0.682636
aa(lp1160
I37
aI87
aF0.29568
aF0.23477999999999996
aF0.7021040000000001
aa(lp1161
I37
aI88
aF0.26088999999999996
aF0.29568
aF0.5509915
aa(lp1162
I37
aI89
aF0.19999
aF0.43477
aF0.19499400000000003
aa(lp1163
I37
aI90
aF0.16954
aF0.50001
aF0.0
aaI0
a(lp1164
I37
aI92
aF0.23912
aF0.26957
aF0.5509915
aa(lp1165
I37
aI93
aF0.15652
aF0.47824
aF0.0
aa(lp1166
I37
aI94
aF0.25214
aF0.20866999999999997
aF0.624075
aa(lp1167
I37
aI95
aF0.15218
aF0.45653999999999995
aF0.0
aa(lp1168
I37
aI96
aF0.14784
aF0.44786
aF0.004867
aa(lp1169
I37
aI97
aF0.14784
aF0.43477
aF0.004867
aa(lp1170
I37
aI98
aF0.14784
aF0.42175
aF0.004867
aa(lp1171
I37
aI99
aF0.14784
aF0.40873
aF0.004867
aa(lp1172
I37
aI100
aF0.20432999999999998
aF0.23043999999999998
aF0.41448
aa(lp1173
I37
aI101
aF0.17388
aF0.30001999999999995
aF0.22427450000000002
aa(lp1174
I37
aI102
aF0.18697
aF0.24345999999999998
aF0.341318
aaI0
a(lp1175
I37
aI104
aF0.14784
aF0.34349
aF0.004867
aa(lp1176
I37
aI105
aF0.14784
aF0.33039999999999997
aF0.004867
aa(lp1177
I37
aI106
aF0.14784
aF0.31738
aF0.004867
aaI0
a(lp1178
I37
aI108
aF0.18697
aF0.18697
aF0.23400849999999998
aa(lp1179
I37
aI109
aF0.18697
aF0.16954
aF0.23400849999999998
aaI0
a(lp1180
I37
aI111
aF0.16519999999999999
aF0.23043999999999998
aF0.0
aa(lp1181
I37
aI112
aF0.17388
aF0.20432999999999998
aF0.0
aa(lp1182
I37
aI113
aF0.20432999999999998
aF0.10003
aF0.19499400000000003
aa(lp1183
I37
aI114
aF0.18263000000000001
aF0.16519999999999999
aF0.0
aa(lp1184
I37
aI115
aF0.23912
aF0.0
aF0.2925695
aaI0
aI0
aI0
a(lp1185
I37
aI119
aF0.24345999999999998
aF0.004339999999999999
aF0.0
aaI0
aI0
aI0
aI0
aI0
aI0
aI0
aI0
aI0
aI0
aI0
aI0
aI0
aI0
aI0
aI0
aI0
aI0
aI0
aI0
aI0
aI0
aI0
aI0
aI0
aI0
aI0
aI0
aI0
aI0
aI0
aI0
aI0
aI0
aI0
aI0
aI0
aI0
aI0
aI0
aI0
aI0
aI0
aI0
aI0
aI0
aI0
aI0
aI0
aI0
aI0
aI0
aI0
aI0
aI0
aI0
aI0
aI0
aI0
aI0
aI0
aI0
aI0
aI0
aI0
aI0
aI0
aI0
aI0
aI0
aI0
aI0
a(lp1186
I38
aI52
aF0.7
aF0.06958
aF0.785
aaI0
a(lp1187
I38
aI54
aF0.63476
aF0.18263000000000001
aF0.614341
aaI0
aI0
a(lp1188
I38
aI57
aF0.50001
aF0.45653999999999995
aF0.0
aa(lp1189
I38
aI58
aF0.5739299999999999
aF0.23043999999999998
aF0.5948730000000001
aa(lp1190
I38
aI59
aF0.4695599999999999
aF0.47824
aF0.0
aa(lp1191
I38
aI60
aF0.46087999999999996
aF0.47824
aF0.0
aa(lp1192
I38
aI61
aF0.44344999999999996
aF0.49132999999999993
aF0.0
aa(lp1193
I38
aI62
aF0.43043
aF0.49566999999999994
aF0.0
aa(lp1194
I38
aI63
aF0.46087999999999996
aF0.38695999999999997
aF0.3071705
aa(lp1195
I38
aI64
aF0.46521999999999997
aF0.35217
aF0.3949335
aa(lp1196
I38
aI65
aF0.39564
aF0.50869
aF0.0
aa(lp1197
I38
aI66
aF0.38261999999999996
aF0.51737
aF0.0
aaI0
a(lp1198
I38
aI68
aF0.35650999999999994
aF0.52612
aF0.0
aa(lp1199
I38
aI69
aF0.34783
aF0.52612
aF0.0
aa(lp1200
I38
aI70
aF0.43477
aF0.27825
aF0.624075
aa(lp1201
I38
aI71
aF0.32605999999999996
aF0.5304599999999999
aF0.0
aa(lp1202
I38
aI72
aF0.31738
aF0.5304599999999999
aF0.0
aaI0
a(lp1203
I38
aI74
aF0.43043
aF0.20432999999999998
aF0.785
aa(lp1204
I38
aI75
aF0.29127
aF0.5304599999999999
aF0.0
aa(lp1205
I38
aI76
aF0.37827999999999995
aF0.27391
aF0.6582225
aa(lp1206
I38
aI77
aF0.34783
aF0.32605999999999996
aF0.5314450000000001
aa(lp1207
I38
aI78
aF0.26522999999999997
aF0.52612
aF0.0
aa(lp1208
I38
aI79
aF0.33914999999999995
aF0.30001999999999995
aF0.5850605
aa(lp1209
I38
aI80
aF0.29568
aF0.38695999999999997
aF0.360786
aa(lp1210
I38
aI81
aF0.24345999999999998
aF0.51737
aF0.0
aa(lp1211
I38
aI82
aF0.29568
aF0.34349
aF0.4632285
aa(lp1212
I38
aI83
aF0.29568
aF0.32172
aF0.502243
aa(lp1213
I38
aI84
aF0.21741999999999997
aF0.51303
aF0.0
aaI0
a(lp1214
I38
aI86
aF0.33481
aF0.16954
aF0.785
aa(lp1215
I38
aI87
aF0.29568
aF0.24779999999999996
aF0.609474
aa(lp1216
I38
aI88
aF0.27825
aF0.26957
aF0.5509915
aaI0
a(lp1217
I38
aI90
aF0.18263000000000001
aF0.47824
aF0.0
aa(lp1218
I38
aI91
aF0.18263000000000001
aF0.46521999999999997
aF0.0
aa(lp1219
I38
aI92
aF0.20432999999999998
aF0.37827999999999995
aF0.21940750000000003
aaI0
a(lp1220
I38
aI94
aF0.16954
aF0.44344999999999996
aF0.0
aa(lp1221
I38
aI95
aF0.16954
aF0.43043
aF0.0
aa(lp1222
I38
aI96
aF0.16954
aF0.41741
aF0.0
aaI0
a(lp1223
I38
aI98
aF0.24779999999999996
aF0.16954
aF0.5461245
aa(lp1224
I38
aI99
aF0.16519999999999999
aF0.38695999999999997
aF0.0
aaI0
a(lp1225
I38
aI101
aF0.21741999999999997
aF0.19565000000000002
aF0.41448
aa(lp1226
I38
aI102
aF0.17388
aF0.31304
aF0.1121765
aaI0
a(lp1227
I38
aI104
aF0.16519999999999999
aF0.32172
aF0.0
aa(lp1228
I38
aI105
aF0.16519999999999999
aF0.3087
aF0.0
aa(lp1229
I38
aI106
aF0.16954
aF0.28692999999999996
aF0.0
aa(lp1230
I38
aI107
aF0.26088999999999996
aF0.021769999999999998
aF0.5509915
aa(lp1231
I38
aI108
aF0.16954
aF0.26088999999999996
aF0.0
aa(lp1232
I38
aI109
aF0.19999
aF0.16954
aF0.170659
aa(lp1233
I38
aI110
aF0.18263000000000001
aF0.21741999999999997
aF0.0
aa(lp1234
I38
aI111
aF0.18263000000000001
aF0.20432999999999998
aF0.0
aaI0
a(lp1235
I38
aI113
aF0.20432999999999998
aF0.13916
aF0.0341475
aaI0
a(lp1236
I38
aI115
aF0.21741999999999997
aF0.10003
aF0.0
aa(lp1237
I38
aI116
aF0.2261
aF0.07392
aF0.0
aaI0
a(lp1238
I38
aI118
aF0.24345999999999998
aF0.021769999999999998
aF0.0
aaI0
aI0
aI0
aI0
aI0
aI0
aI0
aI0
aI0
aI0
aI0
aI0
aI0
aI0
aI0
aI0
aI0
aI0
aI0
aI0
aI0
aI0
aI0
aI0
aI0
aI0
aI0
aI0
aI0
aI0
aI0
aI0
aI0
aI0
aI0
aI0
aI0
aI0
aI0
aI0
aI0
aI0
aI0
aI0
aI0
aI0
aI0
aI0
aI0
aI0
aI0
aI0
aI0
aI0
aI0
aI0
aI0
aI0
aI0
aI0
aI0
aI0
aI0
aI0
aI0
a(lp1239
I39
aI44
aF0.7
aF0.28692999999999996
aF0.0
aaI0
aI0
aI0
aI0
aI0
aI0
aI0
aI0
a(lp1240
I39
aI53
aF0.56084
aF0.40431999999999996
aF0.0
aa(lp1241
I39
aI54
aF0.5739299999999999
aF0.33481
aF0.2145405
aaI0
aI0
aI0
a(lp1242
I39
aI58
aF0.5739299999999999
aF0.23043999999999998
aF0.5314450000000001
aa(lp1243
I39
aI59
aF0.47824
aF0.45653999999999995
aF0.0
aa(lp1244
I39
aI60
aF0.4695599999999999
aF0.45653999999999995
aF0.0
aaI0
a(lp1245
I39
aI62
aF0.44344999999999996
aF0.4695599999999999
aF0.0
aa(lp1246
I39
aI63
aF0.43043
aF0.47824
aF0.0
aa(lp1247
I39
aI64
aF0.42175
aF0.47824
aF0.0
aa(lp1248
I39
aI65
aF0.49132999999999993
aF0.26957
aF0.5509915
aaI0
a(lp1249
I39
aI67
aF0.38261999999999996
aF0.49566999999999994
aF0.0
aa(lp1250
I39
aI68
aF0.37394
aF0.49566999999999994
aF0.0
aa(lp1251
I39
aI69
aF0.36519
aF0.49566999999999994
aF0.0
aa(lp1252
I39
aI70
aF0.38261999999999996
aF0.41306999999999994
aF0.23887550000000002
aa(lp1253
I39
aI71
aF0.34349
aF0.50001
aF0.0
aaI0
aI0
a(lp1254
I39
aI74
aF0.33914999999999995
aF0.43043
aF0.2145405
aaI0
aI0
aI0
a(lp1255
I39
aI78
aF0.37827999999999995
aF0.23912
aF0.6582225
aa(lp1256
I39
aI79
aF0.34783
aF0.29127
aF0.5314450000000001
aa(lp1257
I39
aI80
aF0.26522999999999997
aF0.49566999999999994
aF0.0
aa(lp1258
I39
aI81
aF0.31304
aF0.33039999999999997
aF0.443682
aa(lp1259
I39
aI82
aF0.24779999999999996
aF0.49566999999999994
aF0.0
aa(lp1260
I39
aI83
aF0.24345999999999998
aF0.48699
aF0.0
aa(lp1261
I39
aI84
aF0.31304
aF0.26957
aF0.5509915
aa(lp1262
I39
aI85
aF0.23043999999999998
aF0.47824
aF0.0
aa(lp1263
I39
aI86
aF0.28259
aF0.3087
aF0.443682
aa(lp1264
I39
aI87
aF0.28259
aF0.29127
aF0.443682
aaI0
a(lp1265
I39
aI89
aF0.24779999999999996
aF0.33481
aF0.32663850000000005
aaI0
a(lp1266
I39
aI91
aF0.28259
aF0.21741999999999997
aF0.5509915
aa(lp1267
I39
aI92
aF0.20432999999999998
aF0.40873
aF0.0536155
aaI0
a(lp1268
I39
aI94
aF0.18697
aF0.42175
aF0.0
aa(lp1269
I39
aI95
aF0.18697
aF0.40873
aF0.0
aa(lp1270
I39
aI96
aF0.18263000000000001
aF0.39998
aF0.0
aa(lp1271
I39
aI97
aF0.18263000000000001
aF0.38695999999999997
aF0.0
aa(lp1272
I39
aI98
aF0.18263000000000001
aF0.37394
aF0.0
aa(lp1273
I39
aI99
aF0.18263000000000001
aF0.36084999999999995
aF0.0
aa(lp1274
I39
aI100
aF0.18263000000000001
aF0.34783
aF0.0
aa(lp1275
I39
aI101
aF0.18263000000000001
aF0.33481
aF0.0
aa(lp1276
I39
aI102
aF0.18263000000000001
aF0.32172
aF0.0
aa(lp1277
I39
aI103
aF0.18263000000000001
aF0.3087
aF0.0
aa(lp1278
I39
aI104
aF0.18263000000000001
aF0.29568
aF0.0
aa(lp1279
I39
aI105
aF0.18263000000000001
aF0.28259
aF0.0
aa(lp1280
I39
aI106
aF0.28259
aF0.0
aF0.5509915
aa(lp1281
I39
aI107
aF0.20866999999999997
aF0.18263000000000001
aF0.165792
aa(lp1282
I39
aI108
aF0.20866999999999997
aF0.18263000000000001
aF0.09749700000000001
aa(lp1283
I39
aI109
aF0.26957
aF0.0
aF0.45341600000000004
aa(lp1284
I39
aI110
aF0.20866999999999997
aF0.16954
aF0.0341475
aa(lp1285
I39
aI111
aF0.20866999999999997
aF0.16086
aF0.0341475
aa(lp1286
I39
aI112
aF0.21741999999999997
aF0.13916
aF0.0
aaI0
a(lp1287
I39
aI114
aF0.26088999999999996
aF0.0
aF0.2145405
aa(lp1288
I39
aI115
aF0.24345999999999998
aF0.06089999999999999
aF0.0
aaI0
a(lp1289
I39
aI117
aF0.26522999999999997
aF0.0
aF0.0
aaI0
aI0
aI0
aI0
aI0
aI0
aI0
aI0
aI0
aI0
aI0
aI0
aI0
aI0
aI0
aI0
aI0
aI0
aI0
aI0
aI0
aI0
aI0
aI0
aI0
aI0
aI0
aI0
aI0
aI0
aI0
aI0
aI0
aI0
aI0
aI0
aI0
aI0
aI0
aI0
aI0
aI0
aI0
aI0
aI0
aI0
aI0
aI0
aI0
aI0
aI0
aI0
aI0
aI0
aI0
aI0
aI0
aI0
aI0
aI0
aI0
aI0
aI0
aI0
aI0
aI0
aI0
a(lp1290
I40
aI45
aF0.7
aF0.26957
aF0.0
aaI0
a(lp1291
I40
aI47
aF0.66087
aF0.3087
aF0.0
aaI0
aI0
aI0
a(lp1292
I40
aI51
aF0.6174
aF0.31304
aF0.1121765
aaI0
aI0
a(lp1293
I40
aI54
aF0.7
aF0.026109999999999998
aF0.785
aa(lp1294
I40
aI55
aF0.5739299999999999
aF0.31304
aF0.2145405
aaI0
aI0
aI0
a(lp1295
I40
aI59
aF0.5739299999999999
aF0.21741999999999997
aF0.5071100000000001
aa(lp1296
I40
aI60
aF0.47824
aF0.43910999999999994
aF0.0
aa(lp1297
I40
aI61
aF0.4695599999999999
aF0.43910999999999994
aF0.0
aaI0
a(lp1298
I40
aI63
aF0.44344999999999996
aF0.4522
aF0.0
aaI0
aI0
aI0
a(lp1299
I40
aI67
aF0.44786
aF0.33481
aF0.35591900000000004
aa(lp1300
I40
aI68
aF0.38695999999999997
aF0.4739
aF0.0
aa(lp1301
I40
aI69
aF0.37394
aF0.47824
aF0.0
aa(lp1302
I40
aI70
aF0.36519
aF0.47824
aF0.0
aa(lp1303
I40
aI71
aF0.39998
aF0.35650999999999994
aF0.336451
aa(lp1304
I40
aI72
aF0.34783
aF0.47824
aF0.0
aaI0
a(lp1305
I40
aI74
aF0.32605999999999996
aF0.48257999999999995
aF0.0
aa(lp1306
I40
aI75
aF0.33481
aF0.42608999999999997
aF0.165792
aa(lp1307
I40
aI76
aF0.31304
aF0.47824
aF0.0
aa(lp1308
I40
aI77
aF0.30001999999999995
aF0.48257999999999995
aF0.0
aa(lp1309
I40
aI78
aF0.29127
aF0.48257999999999995
aF0.0
aa(lp1310
I40
aI79
aF0.34783
aF0.30436
aF0.43881500000000007
aa(lp1311
I40
aI80
aF0.27391
aF0.47824
aF0.0
aa(lp1312
I40
aI81
aF0.34783
aF0.26088999999999996
aF0.5314450000000001
aa(lp1313
I40
aI82
aF0.26522999999999997
aF0.46521999999999997
aF0.0
aaI0
a(lp1314
I40
aI84
aF0.31304
aF0.28692999999999996
aF0.443682
aa(lp1315
I40
aI85
aF0.24345999999999998
aF0.45653999999999995
aF0.0
aa(lp1316
I40
aI86
aF0.27825
aF0.33914999999999995
aF0.2925695
aa(lp1317
I40
aI87
aF0.31738
aF0.21741999999999997
aF0.5509915
aa(lp1318
I40
aI88
aF0.29568
aF0.24779999999999996
aF0.4778295
aa(lp1319
I40
aI89
aF0.28259
aF0.26088999999999996
aF0.43881500000000007
aa(lp1320
I40
aI90
aF0.28259
aF0.24779999999999996
aF0.443682
aa(lp1321
I40
aI91
aF0.21741999999999997
aF0.41741
aF0.0
aaI0
aI0
aI0
aI0
aI0
a(lp1322
I40
aI97
aF0.21741999999999997
aF0.31304
aF0.1121765
aa(lp1323
I40
aI98
aF0.28259
aF0.11305
aF0.5509915
aa(lp1324
I40
aI99
aF0.32605999999999996
aF0.0
aF0.7118380000000001
aa(lp1325
I40
aI100
aF0.19565000000000002
aF0.33039999999999997
aF0.0
aa(lp1326
I40
aI101
aF0.24779999999999996
aF0.16954
aF0.331584
aaI0
a(lp1327
I40
aI103
aF0.20432999999999998
aF0.26957
aF0.0390145
aaI0
aI0
a(lp1328
I40
aI106
aF0.28259
aF0.021769999999999998
aF0.443682
aa(lp1329
I40
aI107
aF0.21301
aF0.21301
aF0.0
aa(lp1330
I40
aI108
aF0.21741999999999997
aF0.19130999999999998
aF0.0
aa(lp1331
I40
aI109
aF0.21741999999999997
aF0.17828999999999998
aF0.0
aaI0
aI0
a(lp1332
I40
aI112
aF0.24345999999999998
aF0.10003
aF0.0
aa(lp1333
I40
aI113
aF0.24345999999999998
aF0.09127999999999999
aF0.0
aaI0
a(lp1334
I40
aI115
aF0.26957
aF0.021769999999999998
aF0.0
aaI0
aI0
aI0
aI0
aI0
aI0
aI0
aI0
aI0
aI0
aI0
aI0
aI0
aI0
aI0
aI0
aI0
aI0
aI0
aI0
aI0
aI0
aI0
aI0
aI0
aI0
aI0
aI0
aI0
aI0
aI0
aI0
aI0
aI0
aI0
aI0
aI0
aI0
aI0
aI0
aI0
aI0
aI0
aI0
aI0
aI0
aI0
aI0
aI0
aI0
aI0
aI0
aI0
aI0
aI0
aI0
aI0
aI0
aI0
aI0
aI0
aI0
aI0
aI0
aI0
aI0
aI0
aI0
aI0
aI0
aI0
aI0
a(lp1335
I41
aI48
aF0.66087
aF0.29127
aF0.0
aa(lp1336
I41
aI49
aF0.7
aF0.14784
aF0.3754655
aaI0
a(lp1337
I41
aI51
aF0.7
aF0.10437
aF0.5071100000000001
aaI0
aI0
aI0
a(lp1338
I41
aI55
aF0.56084
aF0.3696
aF0.0
aa(lp1339
I41
aI56
aF0.5739299999999999
aF0.29568
aF0.2145405
aa(lp1340
I41
aI57
aF0.5739299999999999
aF0.26957
aF0.2925695
aaI0
aI0
a(lp1341
I41
aI60
aF0.5739299999999999
aF0.19565000000000002
aF0.5071100000000001
aaI0
a(lp1342
I41
aI62
aF0.51737
aF0.28692999999999996
aF0.341318
aa(lp1343
I41
aI63
aF0.46087999999999996
aF0.42175
aF0.0
aa(lp1344
I41
aI64
aF0.58261
aF0.08259999999999999
aF0.785
aa(lp1345
I41
aI65
aF0.5217099999999999
aF0.20432999999999998
aF0.5655925
aa(lp1346
I41
aI66
aF0.42608999999999997
aF0.43477
aF0.0
aaI0
a(lp1347
I41
aI68
aF0.47824
aF0.23912
aF0.516844
aa(lp1348
I41
aI69
aF0.39564
aF0.44344999999999996
aF0.0
aaI0
a(lp1349
I41
aI71
aF0.37394
aF0.44786
aF0.0
aaI0
a(lp1350
I41
aI73
aF0.35217
aF0.45653999999999995
aF0.0
aa(lp1351
I41
aI74
aF0.34349
aF0.4522
aF0.0
aaI0
a(lp1352
I41
aI76
aF0.32605999999999996
aF0.45653999999999995
aF0.0
aa(lp1353
I41
aI77
aF0.31738
aF0.45653999999999995
aF0.0
aa(lp1354
I41
aI78
aF0.3087
aF0.4522
aF0.0
aa(lp1355
I41
aI79
aF0.36519
aF0.27391
aF0.443682
aa(lp1356
I41
aI80
aF0.29127
aF0.4522
aF0.0
aa(lp1357
I41
aI81
aF0.33914999999999995
aF0.30001999999999995
aF0.360786
aa(lp1358
I41
aI82
aF0.29568
aF0.38695999999999997
aF0.16092499999999998
aaI0
a(lp1359
I41
aI84
aF0.26522999999999997
aF0.43910999999999994
aF0.0
aa(lp1360
I41
aI85
aF0.26522999999999997
aF0.42608999999999997
aF0.0
aa(lp1361
I41
aI86
aF0.31304
aF0.26957
aF0.3803325
aa(lp1362
I41
aI87
aF0.31304
aF0.24345999999999998
aF0.443682
aaI0
a(lp1363
I41
aI89
aF0.24345999999999998
aF0.40431999999999996
aF0.0
aa(lp1364
I41
aI90
aF0.27825
aF0.28259
aF0.2925695
aa(lp1365
I41
aI91
aF0.31738
aF0.16086
aF0.5509915
aa(lp1366
I41
aI92
aF0.27825
aF0.24345999999999998
aF0.336451
aaI0
a(lp1367
I41
aI94
aF0.36084999999999995
aF0.0
aF0.785
aa(lp1368
I41
aI95
aF0.23477999999999996
aF0.31304
aF0.1121765
aa(lp1369
I41
aI96
aF0.28692999999999996
aF0.15652
aF0.43881500000000007
aa(lp1370
I41
aI97
aF0.28259
aF0.14784
aF0.443682
aa(lp1371
I41
aI98
aF0.28259
aF0.13474999999999998
aF0.443682
aa(lp1372
I41
aI99
aF0.21741999999999997
aF0.3087
aF0.0
aa(lp1373
I41
aI100
aF0.28259
aF0.10437
aF0.443682
aa(lp1374
I41
aI101
aF0.22176
aF0.26957
aF0.0390145
aa(lp1375
I41
aI102
aF0.21741999999999997
aF0.26957
aF0.0
aa(lp1376
I41
aI103
aF0.21741999999999997
aF0.26088999999999996
aF0.0
aaI0
a(lp1377
I41
aI105
aF0.30436
aF0.0
aF0.45341600000000004
aaI0
aI0
a(lp1378
I41
aI108
aF0.27825
aF0.03913
aF0.2925695
aa(lp1379
I41
aI109
aF0.29127
aF0.0
aF0.3071705
aa(lp1380
I41
aI110
aF0.25214
aF0.10437
aF0.043881500000000004
aa(lp1381
I41
aI111
aF0.28692999999999996
aF0.0
aF0.2145405
aaI0
aI0
a(lp1382
I41
aI114
aF0.29127
aF0.0
aF0.0
aaI0
aI0
aI0
aI0
aI0
aI0
aI0
aI0
aI0
aI0
aI0
aI0
aI0
aI0
aI0
aI0
aI0
aI0
aI0
aI0
aI0
aI0
aI0
aI0
aI0
aI0
aI0
aI0
aI0
aI0
aI0
aI0
aI0
aI0
aI0
aI0
aI0
aI0
aI0
aI0
aI0
aI0
aI0
aI0
aI0
aI0
aI0
aI0
aI0
aI0
aI0
aI0
aI0
aI0
aI0
aI0
aI0
aI0
aI0
aI0
aI0
aI0
aI0
aI0
aI0
aI0
aI0
aI0
aI0
aI0
aI0
aI0
aI0
aI0
a(lp1383
I42
aI49
aF0.66087
aF0.26957
aF0.0
aa(lp1384
I42
aI50
aF0.7
aF0.13041
aF0.3754655
aaI0
aI0
aI0
aI0
aI0
a(lp1385
I42
aI56
aF0.56084
aF0.34783
aF0.0
aa(lp1386
I42
aI57
aF0.56084
aF0.31304
aF0.1121765
aa(lp1387
I42
aI58
aF0.54348
aF0.33481
aF0.073162
aa(lp1388
I42
aI59
aF0.5739299999999999
aF0.23043999999999998
aF0.346185
aa(lp1389
I42
aI60
aF0.54782
aF0.26957
aF0.2925695
aa(lp1390
I42
aI61
aF0.5739299999999999
aF0.17388
aF0.5071100000000001
aaI0
aI0
a(lp1391
I42
aI64
aF0.46087999999999996
aF0.40431999999999996
aF0.0
aa(lp1392
I42
aI65
aF0.47824
aF0.32605999999999996
aF0.2096735
aaI0
a(lp1393
I42
aI67
aF0.42608999999999997
aF0.41741
aF0.0
aaI0
aI0
aI0
a(lp1394
I42
aI71
aF0.38695999999999997
aF0.42608999999999997
aF0.0
aa(lp1395
I42
aI72
aF0.37394
aF0.43043
aF0.0
aa(lp1396
I42
aI73
aF0.36519
aF0.43043
aF0.0
aa(lp1397
I42
aI74
aF0.39998
aF0.30436
aF0.336451
aa(lp1398
I42
aI75
aF0.34783
aF0.43043
aF0.0
aa(lp1399
I42
aI76
aF0.34349
aF0.42608999999999997
aF0.0
aaI0
a(lp1400
I42
aI78
aF0.32605999999999996
aF0.42608999999999997
aF0.0
aa(lp1401
I42
aI79
aF0.31738
aF0.42608999999999997
aF0.0
aa(lp1402
I42
aI80
aF0.3087
aF0.42608999999999997
aF0.0
aa(lp1403
I42
aI81
aF0.36519
aF0.24345999999999998
aF0.443682
aa(lp1404
I42
aI82
aF0.30001999999999995
aF0.41306999999999994
aF0.0
aa(lp1405
I42
aI83
aF0.29127
aF0.41306999999999994
aF0.0
aaI0
aI0
a(lp1406
I42
aI86
aF0.31304
aF0.27825
aF0.29743650000000005
aa(lp1407
I42
aI87
aF0.34783
aF0.16954
aF0.5314450000000001
aa(lp1408
I42
aI88
aF0.26522999999999997
aF0.38261999999999996
aF0.0
aaI0
a(lp1409
I42
aI90
aF0.39564
aF0.0
aF0.785
aa(lp1410
I42
aI91
aF0.38695999999999997
aF0.0
aF0.785
aa(lp1411
I42
aI92
aF0.31304
aF0.16954
aF0.443682
aa(lp1412
I42
aI93
aF0.31304
aF0.15652
aF0.443682
aa(lp1413
I42
aI94
aF0.24345999999999998
aF0.33481
aF0.0
aa(lp1414
I42
aI95
aF0.24345999999999998
aF0.32172
aF0.0
aa(lp1415
I42
aI96
aF0.24345999999999998
aF0.3087
aF0.0
aa(lp1416
I42
aI97
aF0.24345999999999998
aF0.29568
aF0.0
aa(lp1417
I42
aI98
aF0.27825
aF0.16954
aF0.2925695
aaI0
a(lp1418
I42
aI100
aF0.24345999999999998
aF0.25655
aF0.0
aa(lp1419
I42
aI101
aF0.24345999999999998
aF0.24345999999999998
aF0.0
aa(lp1420
I42
aI102
aF0.24345999999999998
aF0.23043999999999998
aF0.0
aa(lp1421
I42
aI103
aF0.24345999999999998
aF0.21741999999999997
aF0.0
aa(lp1422
I42
aI104
aF0.24345999999999998
aF0.20866999999999997
aF0.0
aa(lp1423
I42
aI105
aF0.26957
aF0.11738999999999998
aF0.170659
aa(lp1424
I42
aI106
aF0.3087
aF0.0
aF0.37052
aaI0
a(lp1425
I42
aI108
aF0.26522999999999997
aF0.12172999999999999
aF0.0
aa(lp1426
I42
aI109
aF0.26522999999999997
aF0.10870999999999999
aF0.0
aa(lp1427
I42
aI110
aF0.27391
aF0.08259999999999999
aF0.0
aaI0
aI0
aI0
aI0
aI0
aI0
aI0
aI0
aI0
aI0
aI0
aI0
aI0
aI0
aI0
aI0
aI0
aI0
aI0
aI0
aI0
aI0
aI0
aI0
aI0
aI0
aI0
aI0
aI0
aI0
aI0
aI0
aI0
aI0
aI0
aI0
aI0
aI0
aI0
aI0
aI0
aI0
aI0
aI0
aI0
aI0
aI0
aI0
aI0
aI0
aI0
aI0
aI0
aI0
aI0
aI0
aI0
aI0
aI0
aI0
aI0
aI0
aI0
aI0
aI0
aI0
aI0
aI0
aI0
aI0
aI0
aI0
aI0
aI0
aI0
aI0
aI0
aI0
aI0
a(lp1428
I43
aI50
aF0.66087
aF0.25655
aF0.0
aa(lp1429
I43
aI51
aF0.7
aF0.10870999999999999
aF0.3754655
aaI0
aI0
aI0
aI0
aI0
aI0
aI0
a(lp1430
I43
aI59
aF0.5739299999999999
aF0.23043999999999998
aF0.29743650000000005
aa(lp1431
I43
aI60
aF0.5347999999999999
aF0.31304
aF0.1121765
aa(lp1432
I43
aI61
aF0.52612
aF0.31304
aF0.1121765
aa(lp1433
I43
aI62
aF0.50001
aF0.36519
aF0.0
aaI0
a(lp1434
I43
aI64
aF0.47824
aF0.37394
aF0.0
aa(lp1435
I43
aI65
aF0.51303
aF0.24345999999999998
aF0.336451
aaI0
a(lp1436
I43
aI67
aF0.44344999999999996
aF0.38695999999999997
aF0.0
aa(lp1437
I43
aI68
aF0.43477
aF0.38695999999999997
aF0.0
aaI0
aI0
aI0
a(lp1438
I43
aI72
aF0.39564
aF0.39564
aF0.014601
aa(lp1439
I43
aI73
aF0.38695999999999997
aF0.39564
aF0.0
aa(lp1440
I43
aI74
aF0.44344999999999996
aF0.20866999999999997
aF0.48269650000000003
aa(lp1441
I43
aI75
aF0.36519
aF0.40431999999999996
aF0.0
aa(lp1442
I43
aI76
aF0.39998
aF0.27391
aF0.336451
aa(lp1443
I43
aI77
aF0.34783
aF0.40431999999999996
aF0.0
aa(lp1444
I43
aI78
aF0.47824
aF0.04347
aF0.785
aaI0
a(lp1445
I43
aI80
aF0.32605999999999996
aF0.39564
aF0.0
aaI0
a(lp1446
I43
aI82
aF0.35650999999999994
aF0.26957
aF0.2925695
aa(lp1447
I43
aI83
aF0.3087
aF0.38261999999999996
aF0.0
aa(lp1448
I43
aI84
aF0.33914999999999995
aF0.26957
aF0.2925695
aa(lp1449
I43
aI85
aF0.30001999999999995
aF0.3696
aF0.0
aa(lp1450
I43
aI86
aF0.29127
aF0.3696
aF0.0
aa(lp1451
I43
aI87
aF0.31304
aF0.27825
aF0.21940750000000003
aa(lp1452
I43
aI88
aF0.29568
aF0.31304
aF0.1121765
aaI0
a(lp1453
I43
aI90
aF0.31738
aF0.22176
aF0.2925695
aa(lp1454
I43
aI91
aF0.39564
aF0.0
aF0.706971
aa(lp1455
I43
aI92
aF0.26522999999999997
aF0.33039999999999997
aF0.0
aa(lp1456
I43
aI93
aF0.26522999999999997
aF0.31738
aF0.0
aa(lp1457
I43
aI94
aF0.26522999999999997
aF0.30436
aF0.0
aa(lp1458
I43
aI95
aF0.26522999999999997
aF0.29127
aF0.0
aa(lp1459
I43
aI96
aF0.34783
aF0.04347
aF0.5314450000000001
aa(lp1460
I43
aI97
aF0.34783
aF0.026109999999999998
aF0.5314450000000001
aa(lp1461
I43
aI98
aF0.35217
aF0.0
aF0.5509915
aaI0
aI0
a(lp1462
I43
aI101
aF0.26522999999999997
aF0.21301
aF0.0
aa(lp1463
I43
aI102
aF0.26522999999999997
aF0.19999
aF0.0
aa(lp1464
I43
aI103
aF0.26522999999999997
aF0.18697
aF0.0
aa(lp1465
I43
aI104
aF0.26522999999999997
aF0.17388
aF0.0
aa(lp1466
I43
aI105
aF0.32605999999999996
aF0.0
aF0.3071705
aaI0
aI0
a(lp1467
I43
aI108
aF0.29127
aF0.08259999999999999
aF0.0
aa(lp1468
I43
aI109
aF0.29127
aF0.06958
aF0.0
aa(lp1469
I43
aI110
aF0.30001999999999995
aF0.04347
aF0.0
aa(lp1470
I43
aI111
aF0.3087
aF0.017359999999999997
aF0.0
aaI0
aI0
aI0
aI0
aI0
aI0
aI0
aI0
aI0
aI0
aI0
aI0
aI0
aI0
aI0
aI0
aI0
aI0
aI0
aI0
aI0
aI0
aI0
aI0
aI0
aI0
aI0
aI0
aI0
aI0
aI0
aI0
aI0
aI0
aI0
aI0
aI0
aI0
aI0
aI0
aI0
aI0
aI0
aI0
aI0
aI0
aI0
aI0
aI0
aI0
aI0
aI0
aI0
aI0
aI0
aI0
aI0
aI0
aI0
aI0
aI0
aI0
aI0
aI0
aI0
aI0
aI0
aI0
aI0
aI0
aI0
aI0
aI0
aI0
aI0
aI0
aI0
aI0
aI0
a(lp1471
I44
aI51
aF0.66087
aF0.23477999999999996
aF0.0
aaI0
aI0
aI0
aI0
a(lp1472
I44
aI56
aF0.7
aF0.0
aF0.624075
aaI0
a(lp1473
I44
aI58
aF0.5652499999999999
aF0.30436
aF0.0
aaI0
aI0
aI0
a(lp1474
I44
aI62
aF0.5521599999999999
aF0.22176
aF0.2925695
aaI0
aI0
a(lp1475
I44
aI65
aF0.47824
aF0.35217
aF0.0
aa(lp1476
I44
aI66
aF0.4695599999999999
aF0.35650999999999994
aF0.0
aa(lp1477
I44
aI67
aF0.4739
aF0.31304
aF0.1121765
aa(lp1478
I44
aI68
aF0.44344999999999996
aF0.3696
aF0.0
aa(lp1479
I44
aI69
aF0.44786
aF0.33481
aF0.073162
aa(lp1480
I44
aI70
aF0.42608999999999997
aF0.37394
aF0.0
aaI0
aI0
a(lp1481
I44
aI73
aF0.44344999999999996
aF0.24345999999999998
aF0.336451
aa(lp1482
I44
aI74
aF0.38695999999999997
aF0.37827999999999995
aF0.0
aa(lp1483
I44
aI75
aF0.38261999999999996
aF0.37394
aF0.0
aa(lp1484
I44
aI76
aF0.41741
aF0.24345999999999998
aF0.336451
aa(lp1485
I44
aI77
aF0.36519
aF0.37394
aF0.0
aa(lp1486
I44
aI78
aF0.36084999999999995
aF0.3696
aF0.0
aa(lp1487
I44
aI79
aF0.38261999999999996
aF0.27391
aF0.23887550000000002
aa(lp1488
I44
aI80
aF0.34349
aF0.3696
aF0.0
aa(lp1489
I44
aI81
aF0.4739
aF0.0
aF0.785
aaI0
a(lp1490
I44
aI83
aF0.33914999999999995
aF0.31304
aF0.1121765
aa(lp1491
I44
aI84
aF0.33039999999999997
aF0.31304
aF0.1121765
aa(lp1492
I44
aI85
aF0.31738
aF0.34349
aF0.0
aa(lp1493
I44
aI86
aF0.33481
aF0.26957
aF0.165792
aa(lp1494
I44
aI87
aF0.3087
aF0.33039999999999997
aF0.0
aa(lp1495
I44
aI88
aF0.30001999999999995
aF0.33039999999999997
aF0.0
aa(lp1496
I44
aI89
aF0.30001999999999995
aF0.31304
aF0.0
aa(lp1497
I44
aI90
aF0.29127
aF0.31738
aF0.0
aa(lp1498
I44
aI91
aF0.29127
aF0.30436
aF0.0
aa(lp1499
I44
aI92
aF0.29127
aF0.29127
aF0.0
aa(lp1500
I44
aI93
aF0.29568
aF0.24779999999999996
aF0.1121765
aaI0
a(lp1501
I44
aI95
aF0.28259
aF0.26522999999999997
aF0.0
aaI0
aI0
a(lp1502
I44
aI98
aF0.28259
aF0.2261
aF0.0
aa(lp1503
I44
aI99
aF0.28259
aF0.21301
aF0.0
aaI0
aI0
aI0
a(lp1504
I44
aI103
aF0.29127
aF0.14784
aF0.0
aa(lp1505
I44
aI104
aF0.29127
aF0.13474999999999998
aF0.0
aa(lp1506
I44
aI105
aF0.29127
aF0.12172999999999999
aF0.0
aa(lp1507
I44
aI106
aF0.29568
aF0.10437
aF0.0
aaI0
a(lp1508
I44
aI108
aF0.3087
aF0.05648999999999999
aF0.0
aa(lp1509
I44
aI109
aF0.32172
aF0.021769999999999998
aF0.0
aa(lp1510
I44
aI110
aF0.32605999999999996
aF0.004339999999999999
aF0.0
aaI0
aI0
aI0
aI0
aI0
aI0
aI0
aI0
aI0
aI0
aI0
aI0
aI0
aI0
aI0
aI0
aI0
aI0
aI0
aI0
aI0
aI0
aI0
aI0
aI0
aI0
aI0
aI0
aI0
aI0
aI0
aI0
aI0
aI0
aI0
aI0
aI0
aI0
aI0
aI0
aI0
aI0
aI0
aI0
aI0
aI0
aI0
aI0
aI0
aI0
aI0
aI0
aI0
aI0
aI0
aI0
aI0
aI0
aI0
aI0
aI0
aI0
aI0
aI0
aI0
aI0
aI0
aI0
aI0
aI0
aI0
aI0
aI0
aI0
aI0
aI0
aI0
aI0
aI0
aI0
aI0
aI0
aI0
aI0
aI0
a(lp1511
I45
aI56
aF0.7
aF0.0
aF0.5607255000000001
aaI0
aI0
aI0
a(lp1512
I45
aI60
aF0.5739299999999999
aF0.23043999999999998
aF0.165792
aa(lp1513
I45
aI61
aF0.5739299999999999
aF0.20866999999999997
aF0.2145405
aa(lp1514
I45
aI62
aF0.5304599999999999
aF0.3087
aF0.0
aaI0
a(lp1515
I45
aI64
aF0.51737
aF0.28692999999999996
aF0.078029
aa(lp1516
I45
aI65
aF0.50001
aF0.31738
aF0.0
aaI0
a(lp1517
I45
aI67
aF0.47824
aF0.32605999999999996
aF0.0
aa(lp1518
I45
aI68
aF0.46087999999999996
aF0.33914999999999995
aF0.0
aa(lp1519
I45
aI69
aF0.47824
aF0.26088999999999996
aF0.2096735
aa(lp1520
I45
aI70
aF0.44344999999999996
aF0.34349
aF0.0
aa(lp1521
I45
aI71
aF0.43910999999999994
aF0.33039999999999997
aF0.0390145
aa(lp1522
I45
aI72
aF0.42608999999999997
aF0.34349
aF0.0
aa(lp1523
I45
aI73
aF0.46087999999999996
aF0.21741999999999997
aF0.3071705
aaI0
aI0
a(lp1524
I45
aI76
aF0.39564
aF0.33914999999999995
aF0.0
aa(lp1525
I45
aI77
aF0.38695999999999997
aF0.33914999999999995
aF0.0
aaI0
a(lp1526
I45
aI79
aF0.36519
aF0.34349
aF0.0
aa(lp1527
I45
aI80
aF0.36519
aF0.33039999999999997
aF0.0
aa(lp1528
I45
aI81
aF0.35650999999999994
aF0.33039999999999997
aF0.0
aa(lp1529
I45
aI82
aF0.34783
aF0.33481
aF0.0
aa(lp1530
I45
aI83
aF0.34349
aF0.32605999999999996
aF0.0
aaI0
aI0
aI0
a(lp1531
I45
aI87
aF0.32605999999999996
aF0.30001999999999995
aF0.0
aa(lp1532
I45
aI88
aF0.31738
aF0.30001999999999995
aF0.0
aa(lp1533
I45
aI89
aF0.31738
aF0.28692999999999996
aF0.0
aa(lp1534
I45
aI90
aF0.33481
aF0.21301
aF0.165792
aa(lp1535
I45
aI91
aF0.3087
aF0.27391
aF0.0
aa(lp1536
I45
aI92
aF0.40431999999999996
aF0.0
aF0.5509915
aa(lp1537
I45
aI93
aF0.3087
aF0.24779999999999996
aF0.0
aa(lp1538
I45
aI94
aF0.3087
aF0.23912
aF0.0
aa(lp1539
I45
aI95
aF0.30001999999999995
aF0.23477999999999996
aF0.0
aa(lp1540
I45
aI96
aF0.30001999999999995
aF0.2261
aF0.0
aa(lp1541
I45
aI97
aF0.30001999999999995
aF0.21301
aF0.0
aa(lp1542
I45
aI98
aF0.33039999999999997
aF0.11738999999999998
aF0.170659
aa(lp1543
I45
aI99
aF0.30001999999999995
aF0.18697
aF0.0
aa(lp1544
I45
aI100
aF0.3087
aF0.16086
aF0.0
aa(lp1545
I45
aI101
aF0.36084999999999995
aF0.0
aF0.3071705
aaI0
a(lp1546
I45
aI103
aF0.3087
aF0.12172999999999999
aF0.0
aa(lp1547
I45
aI104
aF0.31738
aF0.09562
aF0.0
aa(lp1548
I45
aI105
aF0.31738
aF0.08259999999999999
aF0.0
aaI0
aI0
a(lp1549
I45
aI108
aF0.34349
aF0.0
aF0.0
aaI0
aI0
aI0
aI0
aI0
aI0
aI0
aI0
aI0
aI0
aI0
aI0
aI0
aI0
aI0
aI0
aI0
aI0
aI0
aI0
aI0
aI0
aI0
aI0
aI0
aI0
aI0
aI0
aI0
aI0
aI0
aI0
aI0
aI0
aI0
aI0
aI0
aI0
aI0
aI0
aI0
aI0
aI0
aI0
aI0
aI0
aI0
aI0
aI0
aI0
aI0
aI0
aI0
aI0
aI0
aI0
aI0
aI0
aI0
aI0
aI0
aI0
aI0
aI0
aI0
aI0
aI0
aI0
aI0
aI0
aI0
aI0
aI0
aI0
aI0
aI0
aI0
aI0
aI0
aI0
aI0
aI0
aI0
aI0
a(lp1550
I46
aI53
aF0.66087
aF0.19999
aF0.0
aaI0
aI0
aI0
aI0
a(lp1551
I46
aI58
aF0.59563
aF0.24779999999999996
aF0.0
aa(lp1552
I46
aI59
aF0.58695
aF0.24779999999999996
aF0.0
aa(lp1553
I46
aI60
aF0.5695899999999999
aF0.26522999999999997
aF0.0
aa(lp1554
I46
aI61
aF0.56084
aF0.26522999999999997
aF0.0
aaI0
a(lp1555
I46
aI63
aF0.5304599999999999
aF0.28692999999999996
aF0.0
aaI0
aI0
aI0
a(lp1556
I46
aI67
aF0.5739299999999999
aF0.07392
aF0.5071100000000001
aa(lp1557
I46
aI68
aF0.47824
aF0.3087
aF0.0
aa(lp1558
I46
aI69
aF0.4695599999999999
aF0.3087
aF0.0
aa(lp1559
I46
aI70
aF0.46087999999999996
aF0.31304
aF0.0
aaI0
a(lp1560
I46
aI72
aF0.44344999999999996
aF0.31304
aF0.0
aa(lp1561
I46
aI73
aF0.43910999999999994
aF0.29568
aF0.0390145
aa(lp1562
I46
aI74
aF0.42608999999999997
aF0.31304
aF0.0
aa(lp1563
I46
aI75
aF0.4739
aF0.14784
aF0.3998005
aa(lp1564
I46
aI76
aF0.44344999999999996
aF0.20866999999999997
aF0.268156
aaI0
a(lp1565
I46
aI78
aF0.47824
aF0.07826
aF0.516844
aa(lp1566
I46
aI79
aF0.38695999999999997
aF0.3087
aF0.0
aa(lp1567
I46
aI80
aF0.38261999999999996
aF0.30436
aF0.0
aaI0
a(lp1568
I46
aI82
aF0.47824
aF0.0
aF0.6484885
aa(lp1569
I46
aI83
aF0.36519
aF0.29127
aF0.0
aa(lp1570
I46
aI84
aF0.36084999999999995
aF0.28692999999999996
aF0.0
aa(lp1571
I46
aI85
aF0.35650999999999994
aF0.26957
aF0.0390145
aa(lp1572
I46
aI86
aF0.34783
aF0.27825
aF0.0
aa(lp1573
I46
aI87
aF0.34349
aF0.27391
aF0.0
aa(lp1574
I46
aI88
aF0.38261999999999996
aF0.1435
aF0.273023
aa(lp1575
I46
aI89
aF0.43043
aF0.0
aF0.5509915
aa(lp1576
I46
aI90
aF0.33481
aF0.24779999999999996
aF0.0
aa(lp1577
I46
aI91
aF0.39564
aF0.052149999999999995
aF0.42421400000000004
aa(lp1578
I46
aI92
aF0.32605999999999996
aF0.23477999999999996
aF0.0
aa(lp1579
I46
aI93
aF0.33481
aF0.19999
aF0.0390145
aa(lp1580
I46
aI94
aF0.32605999999999996
aF0.20866999999999997
aF0.0
aa(lp1581
I46
aI95
aF0.32605999999999996
aF0.19565000000000002
aF0.0
aa(lp1582
I46
aI96
aF0.32605999999999996
aF0.18263000000000001
aF0.0
aa(lp1583
I46
aI97
aF0.32605999999999996
aF0.16954
aF0.0
aa(lp1584
I46
aI98
aF0.32605999999999996
aF0.15652
aF0.0
aa(lp1585
I46
aI99
aF0.32605999999999996
aF0.14784
aF0.0
aa(lp1586
I46
aI100
aF0.32605999999999996
aF0.13041
aF0.0
aaI0
a(lp1587
I46
aI102
aF0.36519
aF0.0
aF0.2145405
aa(lp1588
I46
aI103
aF0.34349
aF0.06524
aF0.0
aa(lp1589
I46
aI104
aF0.34783
aF0.04781
aF0.0
aa(lp1590
I46
aI105
aF0.34349
aF0.04347
aF0.0
aa(lp1591
I46
aI106
aF0.36084999999999995
aF0.0
aF0.0
aaI0
aI0
aI0
aI0
aI0
aI0
aI0
aI0
aI0
aI0
aI0
aI0
aI0
aI0
aI0
aI0
aI0
aI0
aI0
aI0
aI0
aI0
aI0
aI0
aI0
aI0
aI0
aI0
aI0
aI0
aI0
aI0
aI0
aI0
aI0
aI0
aI0
aI0
aI0
aI0
aI0
aI0
aI0
aI0
aI0
aI0
aI0
aI0
aI0
aI0
aI0
aI0
aI0
aI0
aI0
aI0
aI0
aI0
aI0
aI0
aI0
aI0
aI0
aI0
aI0
aI0
aI0
aI0
aI0
aI0
aI0
aI0
aI0
aI0
aI0
aI0
aI0
aI0
aI0
aI0
aI0
aI0
aI0
aI0
aI0
a(lp1592
I47
aI52
aF0.7
aF0.13916
aF0.004867
aaI0
aI0
aI0
a(lp1593
I47
aI56
aF0.7
aF0.021769999999999998
aF0.3754655
aa(lp1594
I47
aI57
aF0.7
aF0.0
aF0.44854900000000003
aa(lp1595
I47
aI58
aF0.6913199999999999
aF0.0
aF0.45341600000000004
aaI0
aI0
a(lp1596
I47
aI61
aF0.66087
aF0.0
aF0.516844
aa(lp1597
I47
aI62
aF0.56084
aF0.24779999999999996
aF0.0
aaI0
a(lp1598
I47
aI64
aF0.63476
aF0.0
aF0.5509915
aa(lp1599
I47
aI65
aF0.62608
aF0.0
aF0.5509915
aa(lp1600
I47
aI66
aF0.51737
aF0.26522999999999997
aF0.0
aaI0
a(lp1601
I47
aI68
aF0.50001
aF0.26957
aF0.0
aa(lp1602
I47
aI69
aF0.5739299999999999
aF0.04347
aF0.5071100000000001
aa(lp1603
I47
aI70
aF0.47824
aF0.27825
aF0.0
aa(lp1604
I47
aI71
aF0.4695599999999999
aF0.28259
aF0.0
aa(lp1605
I47
aI72
aF0.46087999999999996
aF0.28259
aF0.0
aa(lp1606
I47
aI73
aF0.47824
aF0.19999
aF0.2096735
aa(lp1607
I47
aI74
aF0.44786
aF0.26957
aF0.0390145
aa(lp1608
I47
aI75
aF0.43910999999999994
aF0.26957
aF0.0390145
aa(lp1609
I47
aI76
aF0.42608999999999997
aF0.28692999999999996
aF0.0
aa(lp1610
I47
aI77
aF0.44344999999999996
aF0.20866999999999997
aF0.19012700000000002
aa(lp1611
I47
aI78
aF0.43477
aF0.20866999999999997
aF0.19012700000000002
aaI0
aI0
a(lp1612
I47
aI81
aF0.39564
aF0.26522999999999997
aF0.0
aa(lp1613
I47
aI82
aF0.38695999999999997
aF0.26957
aF0.0
aa(lp1614
I47
aI83
aF0.38261999999999996
aF0.26088999999999996
aF0.0
aa(lp1615
I47
aI84
aF0.4695599999999999
aF0.0
aF0.5509915
aa(lp1616
I47
aI85
aF0.37394
aF0.24779999999999996
aF0.0
aaI0
aI0
a(lp1617
I47
aI88
aF0.36519
aF0.2261
aF0.0
aa(lp1618
I47
aI89
aF0.38261999999999996
aF0.1435
aF0.19499400000000003
aa(lp1619
I47
aI90
aF0.35650999999999994
aF0.21301
aF0.0
aa(lp1620
I47
aI91
aF0.38261999999999996
aF0.10870999999999999
aF0.23887550000000002
aa(lp1621
I47
aI92
aF0.34783
aF0.19999
aF0.0
aa(lp1622
I47
aI93
aF0.34783
aF0.18697
aF0.0
aa(lp1623
I47
aI94
aF0.38261999999999996
aF0.06958
aF0.23887550000000002
aa(lp1624
I47
aI95
aF0.34783
aF0.16086
aF0.0
aa(lp1625
I47
aI96
aF0.34783
aF0.14784
aF0.0
aa(lp1626
I47
aI97
aF0.39564
aF0.0
aF0.27788999999999997
aa(lp1627
I47
aI98
aF0.34783
aF0.12607
aF0.0
aa(lp1628
I47
aI99
aF0.34783
aF0.10870999999999999
aF0.0
aaI0
aI0
a(lp1629
I47
aI102
aF0.36519
aF0.04347
aF0.0
aaI0
a(lp1630
I47
aI104
aF0.37827999999999995
aF0.0
aF0.0
aaI0
aI0
aI0
aI0
aI0
aI0
aI0
aI0
aI0
aI0
aI0
aI0
aI0
aI0
aI0
aI0
aI0
aI0
aI0
aI0
aI0
aI0
aI0
aI0
aI0
aI0
aI0
aI0
aI0
aI0
aI0
aI0
aI0
aI0
aI0
aI0
aI0
aI0
aI0
aI0
aI0
aI0
aI0
aI0
aI0
aI0
aI0
aI0
aI0
aI0
aI0
aI0
aI0
aI0
aI0
aI0
aI0
aI0
aI0
aI0
aI0
aI0
aI0
aI0
aI0
aI0
aI0
aI0
aI0
aI0
aI0
aI0
aI0
aI0
aI0
aI0
aI0
aI0
aI0
aI0
aI0
aI0
aI0
aI0
aI0
aI0
aI0
aI0
aI0
aI0
aI0
aI0
aI0
aI0
aI0
aI0
aI0
a(lp1631
I48
aI62
aF0.65653
aF0.0
aF0.45341600000000004
aa(lp1632
I48
aI63
aF0.6478499999999999
aF0.0
aF0.45341600000000004
aaI0
a(lp1633
I48
aI65
aF0.5739299999999999
aF0.1435
aF0.2145405
aaI0
aI0
aI0
a(lp1634
I48
aI69
aF0.50435
aF0.24779999999999996
aF0.0
aa(lp1635
I48
aI70
aF0.50001
aF0.23912
aF0.0
aa(lp1636
I48
aI71
aF0.5739299999999999
aF0.008679999999999998
aF0.5071100000000001
aa(lp1637
I48
aI72
aF0.47824
aF0.24779999999999996
aF0.0
aaI0
a(lp1638
I48
aI74
aF0.46087999999999996
aF0.25214
aF0.0
aaI0
aI0
a(lp1639
I48
aI77
aF0.4739
aF0.14784
aF0.243821
aa(lp1640
I48
aI78
aF0.43910999999999994
aF0.2261
aF0.043881500000000004
aaI0
a(lp1641
I48
aI80
aF0.46087999999999996
aF0.11305
aF0.3071705
aa(lp1642
I48
aI81
aF0.46087999999999996
aF0.10003
aF0.3071705
aaI0
aI0
a(lp1643
I48
aI84
aF0.47824
aF0.0
aF0.46809550000000005
aa(lp1644
I48
aI85
aF0.39564
aF0.21301
aF0.014601
aa(lp1645
I48
aI86
aF0.38695999999999997
aF0.21741999999999997
aF0.0
aa(lp1646
I48
aI87
aF0.38261999999999996
aF0.20866999999999997
aF0.0
aa(lp1647
I48
aI88
aF0.4522
aF0.0
aF0.41448
aa(lp1648
I48
aI89
aF0.38261999999999996
aF0.18263000000000001
aF0.0
aaI0
a(lp1649
I48
aI91
aF0.38261999999999996
aF0.1435
aF0.0633495
aaI0
a(lp1650
I48
aI93
aF0.37394
aF0.14784
aF0.0
aa(lp1651
I48
aI94
aF0.41741
aF0.0
aF0.3071705
aaI0
aI0
a(lp1652
I48
aI97
aF0.40431999999999996
aF0.0
aF0.2145405
aa(lp1653
I48
aI98
aF0.37394
aF0.08259999999999999
aF0.0
aa(lp1654
I48
aI99
aF0.38261999999999996
aF0.05648999999999999
aF0.0
aa(lp1655
I48
aI100
aF0.38695999999999997
aF0.03479
aF0.0
aa(lp1656
I48
aI101
aF0.38695999999999997
aF0.021769999999999998
aF0.0
aaI0
aI0
aI0
aI0
aI0
aI0
aI0
aI0
aI0
aI0
aI0
aI0
aI0
aI0
aI0
aI0
aI0
aI0
aI0
aI0
aI0
aI0
aI0
aI0
aI0
aI0
aI0
aI0
aI0
aI0
aI0
aI0
aI0
aI0
aI0
aI0
aI0
aI0
aI0
aI0
aI0
aI0
aI0
aI0
aI0
aI0
aI0
aI0
aI0
aI0
aI0
aI0
aI0
aI0
aI0
aI0
aI0
aI0
aI0
aI0
aI0
aI0
aI0
aI0
aI0
aI0
aI0
aI0
aI0
aI0
aI0
aI0
aI0
aI0
aI0
aI0
aI0
aI0
aI0
aI0
aI0
aI0
aI0
aI0
aI0
aI0
aI0
aI0
aI0
aI0
aI0
aI0
aI0
aI0
aI0
a(lp1657
I49
aI57
aF0.66087
aF0.13474999999999998
aF0.0
aa(lp1658
I49
aI58
aF0.7
aF0.0
aF0.29743650000000005
aaI0
aI0
aI0
a(lp1659
I49
aI62
aF0.66087
aF0.0
aF0.39006650000000004
aaI0
aI0
aI0
a(lp1660
I49
aI66
aF0.62608
aF0.0
aF0.41448
aa(lp1661
I49
aI67
aF0.5739299999999999
aF0.11305
aF0.2145405
aa(lp1662
I49
aI68
aF0.60872
aF0.0
aF0.45341600000000004
aa(lp1663
I49
aI69
aF0.5999699999999999
aF0.0
aF0.45341600000000004
aa(lp1664
I49
aI70
aF0.59129
aF0.0
aF0.45341600000000004
aa(lp1665
I49
aI71
aF0.58261
aF0.0
aF0.45341600000000004
aaI0
a(lp1666
I49
aI73
aF0.5695899999999999
aF0.0
aF0.45341600000000004
aa(lp1667
I49
aI74
aF0.56084
aF0.0
aF0.45341600000000004
aa(lp1668
I49
aI75
aF0.47824
aF0.20866999999999997
aF0.0
aa(lp1669
I49
aI76
aF0.54348
aF0.0
aF0.45341600000000004
aa(lp1670
I49
aI77
aF0.46087999999999996
aF0.21301
aF0.0
aaI0
a(lp1671
I49
aI79
aF0.5217099999999999
aF0.0
aF0.45341600000000004
aa(lp1672
I49
aI80
aF0.51303
aF0.0
aF0.45341600000000004
aa(lp1673
I49
aI81
aF0.44344999999999996
aF0.17388
aF0.078029
aa(lp1674
I49
aI82
aF0.43910999999999994
aF0.17388
aF0.043881500000000004
aa(lp1675
I49
aI83
aF0.44344999999999996
aF0.12607
aF0.170659
aa(lp1676
I49
aI84
aF0.44344999999999996
aF0.11738999999999998
aF0.170659
aa(lp1677
I49
aI85
aF0.47824
aF0.0
aF0.38519950000000003
aaI0
aI0
aI0
a(lp1678
I49
aI89
aF0.45653999999999995
aF0.0
aF0.3071705
aa(lp1679
I49
aI90
aF0.44786
aF0.0
aF0.3071705
aaI0
a(lp1680
I49
aI92
aF0.39564
aF0.12172999999999999
aF0.014601
aaI0
aI0
aI0
a(lp1681
I49
aI96
aF0.39564
aF0.07392
aF0.0
aaI0
aI0
a(lp1682
I49
aI99
aF0.40431999999999996
aF0.021769999999999998
aF0.0
aa(lp1683
I49
aI100
aF0.40873
aF0.0
aF0.0
aaI0
aI0
aI0
aI0
aI0
aI0
aI0
aI0
aI0
aI0
aI0
aI0
aI0
aI0
aI0
aI0
aI0
aI0
aI0
aI0
aI0
aI0
aI0
aI0
aI0
aI0
aI0
aI0
aI0
aI0
aI0
aI0
aI0
aI0
aI0
aI0
aI0
aI0
aI0
aI0
aI0
aI0
aI0
aI0
aI0
aI0
aI0
aI0
aI0
aI0
aI0
aI0
aI0
aI0
aI0
aI0
aI0
aI0
aI0
aI0
aI0
aI0
aI0
aI0
aI0
aI0
aI0
aI0
aI0
aI0
aI0
aI0
aI0
aI0
aI0
aI0
aI0
aI0
aI0
aI0
aI0
aI0
aI0
aI0
aI0
aI0
aI0
aI0
aI0
aI0
aI0
aI0
aI0
aI0
aI0
aI0
aI0
a(lp1684
I50
aI58
aF0.66955
aF0.10437
aF0.0
aa(lp1685
I50
aI59
aF0.66087
aF0.10870999999999999
aF0.0
aaI0
aI0
aI0
a(lp1686
I50
aI63
aF0.66087
aF0.0
aF0.2925695
aaI0
aI0
aI0
aI0
a(lp1687
I50
aI68
aF0.56084
aF0.16086
aF0.0
aaI0
a(lp1688
I50
aI70
aF0.5999699999999999
aF0.0
aF0.37052
aaI0
aI0
aI0
a(lp1689
I50
aI74
aF0.50001
aF0.18263000000000001
aF0.0
aaI0
a(lp1690
I50
aI76
aF0.5521599999999999
aF0.0
aF0.37052
aa(lp1691
I50
aI77
aF0.47824
aF0.18263000000000001
aF0.0
aa(lp1692
I50
aI78
aF0.47824
aF0.16954
aF0.0
aa(lp1693
I50
aI79
aF0.4695599999999999
aF0.16954
aF0.0
aa(lp1694
I50
aI80
aF0.46087999999999996
aF0.16954
aF0.0
aa(lp1695
I50
aI81
aF0.46087999999999996
aF0.15652
aF0.0
aaI0
a(lp1696
I50
aI83
aF0.4522
aF0.14784
aF0.0
aa(lp1697
I50
aI84
aF0.44344999999999996
aF0.14784
aF0.0
aa(lp1698
I50
aI85
aF0.44344999999999996
aF0.13474999999999998
aF0.0
aa(lp1699
I50
aI86
aF0.43910999999999994
aF0.13041
aF0.0
aa(lp1700
I50
aI87
aF0.47824
aF0.0
aF0.258422
aa(lp1701
I50
aI88
aF0.42608999999999997
aF0.12607
aF0.0
aa(lp1702
I50
aI89
aF0.42608999999999997
aF0.11305
aF0.0
aa(lp1703
I50
aI90
aF0.42608999999999997
aF0.10003
aF0.0
aaI0
a(lp1704
I50
aI92
aF0.42608999999999997
aF0.07392
aF0.0
aa(lp1705
I50
aI93
aF0.42608999999999997
aF0.06089999999999999
aF0.0
aa(lp1706
I50
aI94
aF0.42608999999999997
aF0.04781
aF0.0
aa(lp1707
I50
aI95
aF0.42608999999999997
aF0.03479
aF0.0
aa(lp1708
I50
aI96
aF0.42608999999999997
aF0.021769999999999998
aF0.0
aaI0
aI0
aI0
aI0
aI0
aI0
aI0
aI0
aI0
aI0
aI0
aI0
aI0
aI0
aI0
aI0
aI0
aI0
aI0
aI0
aI0
aI0
aI0
aI0
aI0
aI0
aI0
aI0
aI0
aI0
aI0
aI0
aI0
aI0
aI0
aI0
aI0
aI0
aI0
aI0
aI0
aI0
aI0
aI0
aI0
aI0
aI0
aI0
aI0
aI0
aI0
aI0
aI0
aI0
aI0
aI0
aI0
aI0
aI0
aI0
aI0
aI0
aI0
aI0
aI0
aI0
aI0
aI0
aI0
aI0
aI0
aI0
aI0
aI0
aI0
aI0
aI0
aI0
aI0
aI0
aI0
aI0
aI0
aI0
aI0
aI0
aI0
aI0
aI0
aI0
aI0
aI0
aI0
aI0
aI0
aI0
aI0
aI0
aI0
aI0
aI0
a(lp1709
I51
aI58
aF0.7
aF0.04781
aF0.0
aa(lp1710
I51
aI59
aF0.67823
aF0.07392
aF0.0
aa(lp1711
I51
aI60
aF0.66521
aF0.08259999999999999
aF0.0
aa(lp1712
I51
aI61
aF0.66087
aF0.07826
aF0.0
aa(lp1713
I51
aI62
aF0.67389
aF0.0
aF0.2145405
aaI0
aI0
aI0
aI0
aI0
aI0
aI0
a(lp1714
I51
aI70
aF0.6043799999999999
aF0.0
aF0.3071705
aa(lp1715
I51
aI71
aF0.59563
aF0.0
aF0.3071705
aa(lp1716
I51
aI72
aF0.5739299999999999
aF0.04347
aF0.2145405
aa(lp1717
I51
aI73
aF0.58261
aF0.0
aF0.3071705
aa(lp1718
I51
aI74
aF0.5739299999999999
aF0.0
aF0.3071705
aaI0
aI0
a(lp1719
I51
aI77
aF0.50001
aF0.1435
aF0.0
aaI0
aI0
aI0
a(lp1720
I51
aI81
aF0.47824
aF0.13041
aF0.0
aaI0
a(lp1721
I51
aI83
aF0.4695599999999999
aF0.11738999999999998
aF0.0
aa(lp1722
I51
aI84
aF0.4695599999999999
aF0.10437
aF0.0
aa(lp1723
I51
aI85
aF0.46087999999999996
aF0.10437
aF0.0
aa(lp1724
I51
aI86
aF0.46087999999999996
aF0.09127999999999999
aF0.0
aa(lp1725
I51
aI87
aF0.46087999999999996
aF0.07826
aF0.0
aa(lp1726
I51
aI88
aF0.46087999999999996
aF0.06958
aF0.0
aa(lp1727
I51
aI89
aF0.47824
aF0.0
aF0.1219105
aaI0
aI0
a(lp1728
I51
aI92
aF0.45653999999999995
aF0.021769999999999998
aF0.0
aaI0
a(lp1729
I51
aI94
aF0.45653999999999995
aF0.0
aF0.0
aaI0
aI0
aI0
aI0
aI0
aI0
aI0
aI0
aI0
aI0
aI0
aI0
aI0
aI0
aI0
aI0
aI0
aI0
aI0
aI0
aI0
aI0
aI0
aI0
aI0
aI0
aI0
aI0
aI0
aI0
aI0
aI0
aI0
aI0
aI0
aI0
aI0
aI0
aI0
aI0
aI0
aI0
aI0
aI0
aI0
aI0
aI0
aI0
aI0
aI0
aI0
aI0
aI0
aI0
aI0
aI0
aI0
aI0
aI0
aI0
aI0
aI0
aI0
aI0
aI0
aI0
aI0
aI0
aI0
aI0
aI0
aI0
aI0
aI0
aI0
aI0
aI0
aI0
aI0
aI0
aI0
aI0
aI0
aI0
aI0
aI0
aI0
aI0
aI0
aI0
aI0
aI0
aI0
aI0
aI0
aI0
aI0
aI0
aI0
aI0
aI0
aI0
aI0
aI0
aI0
a(lp1730
I52
aI60
aF0.7
aF0.021769999999999998
aF0.0
aaI0
aI0
aI0
aI0
aI0
aI0
a(lp1731
I52
aI67
aF0.6130599999999999
aF0.08259999999999999
aF0.0
aaI0
a(lp1732
I52
aI69
aF0.59563
aF0.08259999999999999
aF0.0
aa(lp1733
I52
aI70
aF0.6130599999999999
aF0.0
aF0.2145405
aa(lp1734
I52
aI71
aF0.6043799999999999
aF0.0
aF0.2145405
aa(lp1735
I52
aI72
aF0.56084
aF0.10437
aF0.0
aa(lp1736
I52
aI73
aF0.59129
aF0.0
aF0.2145405
aa(lp1737
I52
aI74
aF0.58261
aF0.0
aF0.2145405
aa(lp1738
I52
aI75
aF0.5739299999999999
aF0.0
aF0.2145405
aaI0
aI0
a(lp1739
I52
aI78
aF0.5521599999999999
aF0.0
aF0.2145405
aa(lp1740
I52
aI79
aF0.5217099999999999
aF0.08259999999999999
aF0.0
aa(lp1741
I52
aI80
aF0.51303
aF0.08259999999999999
aF0.0
aaI0
a(lp1742
I52
aI82
aF0.50435
aF0.07392
aF0.0
aa(lp1743
I52
aI83
aF0.50001
aF0.06524
aF0.0
aaI0
aI0
aI0
aI0
a(lp1744
I52
aI88
aF0.48699
aF0.021769999999999998
aF0.0
aa(lp1745
I52
aI89
aF0.47824
aF0.026109999999999998
aF0.0
aa(lp1746
I52
aI90
aF0.48699
aF0.0
aF0.0
aa(lp1747
I52
aI91
aF0.47824
aF0.0
aF0.0
aaI0
aI0
aI0
aI0
aI0
aI0
aI0
aI0
aI0
aI0
aI0
aI0
aI0
aI0
aI0
aI0
aI0
aI0
aI0
aI0
aI0
aI0
aI0
aI0
aI0
aI0
aI0
aI0
aI0
aI0
aI0
aI0
aI0
aI0
aI0
aI0
aI0
aI0
aI0
aI0
aI0
aI0
aI0
aI0
aI0
aI0
aI0
aI0
aI0
aI0
aI0
aI0
aI0
aI0
aI0
aI0
aI0
aI0
aI0
aI0
aI0
aI0
aI0
aI0
aI0
aI0
aI0
aI0
aI0
aI0
aI0
aI0
aI0
aI0
aI0
aI0
aI0
aI0
aI0
aI0
aI0
aI0
aI0
aI0
aI0
aI0
aI0
aI0
aI0
aI0
aI0
aI0
aI0
aI0
aI0
aI0
aI0
aI0
aI0
aI0
aI0
aI0
aI0
aI0
aI0
aI0
aI0
aI0
aI0
aI0
a(lp1748
I53
aI62
aF0.69566
aF0.0
aF0.0
aa(lp1749
I53
aI63
aF0.68698
aF0.0
aF0.0
aaI0
a(lp1750
I53
aI65
aF0.66087
aF0.021769999999999998
aF0.0
aa(lp1751
I53
aI66
aF0.66087
aF0.0
aF0.0536155
aaI0
aI0
aI0
aI0
aI0
aI0
aI0
aI0
aI0
aI0
a(lp1752
I53
aI77
aF0.56084
aF0.03913
aF0.0
aaI0
aI0
aI0
aI0
a(lp1753
I53
aI82
aF0.5347999999999999
aF0.021769999999999998
aF0.0
aa(lp1754
I53
aI83
aF0.52612
aF0.021769999999999998
aF0.0
aa(lp1755
I53
aI84
aF0.51737
aF0.021769999999999998
aF0.0
aaI0
a(lp1756
I53
aI86
aF0.51737
aF0.0
aF0.0
aaI0
aI0
aI0
aI0
aI0
aI0
aI0
aI0
aI0
aI0
aI0
aI0
aI0
aI0
aI0
aI0
aI0
aI0
aI0
aI0
aI0
aI0
aI0
aI0
aI0
aI0
aI0
aI0
aI0
aI0
aI0
aI0
aI0
aI0
aI0
aI0
aI0
aI0
aI0
aI0
aI0
aI0
aI0
aI0
aI0
aI0
aI0
aI0
aI0
aI0
aI0
aI0
aI0
aI0
aI0
aI0
aI0
aI0
aI0
aI0
aI0
aI0
aI0
aI0
aI0
aI0
aI0
aI0
aI0
aI0
aI0
aI0
aI0
aI0
aI0
aI0
aI0
aI0
aI0
aI0
aI0
aI0
aI0
aI0
aI0
aI0
aI0
aI0
aI0
aI0
aI0
aI0
aI0
aI0
aI0
aI0
aI0
aI0
aI0
aI0
aI0
aI0
aI0
aI0
aI0
aI0
aI0
aI0
aI0
aI0
aI0
aI0
aI0
aI0
aI0
aI0
aI0
aI0
aI0
aI0
aI0
aI0
a(lp1757
I54
aI69
aF0.6435099999999999
aF0.0
aF0.0
aa(lp1758
I54
aI70
aF0.63476
aF0.0
aF0.0
aaI0
a(lp1759
I54
aI72
aF0.62174
aF0.0
aF0.0
aa(lp1760
I54
aI73
aF0.6130599999999999
aF0.0
aF0.0
aa(lp1761
I54
aI74
aF0.6043799999999999
aF0.0
aF0.0
aaI0
a(lp1762
I54
aI76
aF0.59129
aF0.0
aF0.0
aa(lp1763
I54
aI77
aF0.58261
aF0.0
aF0.0
aaI0
a(lp1764
I54
aI79
aF0.5695899999999999
aF0.0
aF0.0
aaI0
aI0
aI0
aI0
aI0
aI0
aI0
aI0
aI0
aI0
aI0
aI0
aI0
aI0
aI0
aI0
aI0
aI0
aI0
aI0
aI0
aI0
aI0
aI0
aI0
aI0
aI0
aI0
aI0
aI0
aI0
aI0
aI0
aI0
aI0
aI0
aI0
aI0
aI0
aI0
aI0
aI0
aI0
aI0
aI0
aI0
aI0
aI0
aI0
aI0
aI0
aI0
aI0
aI0
aI0
aI0
aI0
aI0
aI0
aI0
aI0
aI0
aI0
aI0
aI0
aI0
aI0
aI0
aI0
aI0
aI0
aI0
aI0
aI0
aI0
aI0
aI0
aI0
aI0
aI0
aI0
aI0
aI0
aI0
aI0
aI0
aI0
aI0
aI0
aI0
aI0
aI0
aI0
aI0
aI0
aI0
aI0
aI0
aI0
aI0
aI0
aI0
aI0
aI0
aI0
aI0
aI0
aI0
aI0
aI0
aI0
aI0
aI0
aI0
aI0
aI0
aI0
aI0
aI0
aI0
aI0
aI0
aI0
aI0
aI0
aI0
aI0
aI0
aI0
aI0
aI0
aI0
aI0
aI0
aI0
aI0
aI0
aI0
aI0
aI0
aI0
aI0
aI0
aI0
aI0
aI0
aI0
aI0
aI0
aI0
aI0
aI0
aI0
aI0
aI0
aI0
aI0
aI0
aI0
aI0
aI0
aI0
aI0
aI0
aI0
aI0
aI0
aI0
aI0
aI0
aI0
aI0
aI0
aI0
aI0
aI0
aI0
aI0
aI0
aI0
aI0
aI0
aI0
aI0
aI0
aI0
aI0
aI0
aI0
aI0
aI0
aI0
aI0
aI0
aI0
aI0
aI0
aI0
aI0
aI0
aI0
aI0
aI0
aI0
aI0
aI0
aI0
aI0
aI0
aI0
aI0
aI0
aI0
aI0
aI0
aI0
aI0
aI0
aI0
aI0
aI0
aI0
aI0
aI0
aI0
aI0
aI0
aI0
aI0
aI0
aI0
aI0
aI0
aI0
aI0
aI0
aI0
aI0
aI0
aI0
aI0
aI0
aI0
aI0
aI0
aI0
aI0
aI0
aI0
aI0
aI0
aI0
aI0
aI0
aI0
aI0
aI0
aI0
aI0
aI0
aI0
aI0
aI0
aI0
aI0
aI0
aI0
aI0
aI0
aI0
aI0
aI0
aI0
aI0
aI0
aI0
aI0
aI0
aI0
aI0
aI0
aI0
aI0
aI0
aI0
aI0
aI0
aI0
aI0
aI0
aI0
aI0
aI0
aI0
aI0
aI0
aI0
aI0
aI0
aI0
aI0
aI0
aI0
aI0
aI0
aI0
aI0
aI0
aI0
aI0
aI0
aI0
aI0
aI0
aI0
aI0
aI0
aI0
aI0
aI0
aI0
aI0
aI0
aI0
aI0
aI0
aI0
aI0
aI0
aI0
aI0
aI0
aI0
aI0
aI0
aI0
aI0
aI0
aI0
aI0
aI0
aI0
aI0
aI0
aI0
aI0
aI0
aI0
aI0
aI0
aI0
aI0
aI0
aI0
aI0
aI0
aI0
aI0
aI0
aI0
aI0
aI0
aI0
aI0
aI0
aI0
aI0
aI0
aI0
aI0
aI0
aI0
aI0
aI0
aI0
aI0
aI0
aI0
aI0
aI0
aI0
aI0
aI0
aI0
aI0
aI0
aI0
aI0
aI0
aI0
aI0
aI0
aI0
aI0
aI0
aI0
aI0
aI0
aI0
aI0
aI0
aI0
aI0
aI0
aI0
aI0
aI0
aI0
aI0
aI0
aI0
aI0
aI0
aI0
aI0
aI0
aI0
aI0
aI0
aI0
aI0
aI0
aI0
aI0
aI0
aI0
aI0
aI0
aI0
aI0
aI0
aI0
aI0
aI0
aI0
aI0
aI0
aI0
aI0
aI0
aI0
aI0
aI0
aI0
aI0
aI0
aI0
aI0
aI0
aI0
aI0
aI0
aI0
aI0
aI0
aI0
aI0
aI0
aI0
aI0
aI0
aI0
aI0
aI0
aI0
aI0
aI0
aI0
aI0
aI0
aI0
aI0
aI0
aI0
aI0
aI0
aI0
aI0
aI0
aI0
aI0
aI0
aI0
aI0
aI0
aI0
aI0
aI0
aI0
aI0
aI0
aI0
aI0
aI0
aI0
aI0
aI0
aI0
aI0
aI0
aI0
aI0
aI0
aI0
aI0
aI0
aI0
aI0
aI0
aI0
aI0
aI0
aI0
aI0
aI0
aI0
aI0
aI0
aI0
aI0
aI0
aI0
aI0
aI0
aI0
aI0
aI0
aI0
aI0
aI0
aI0
aI0
aI0
aI0
aI0
aI0
aI0
aI0
aI0
aI0
aI0
aI0
aI0
aI0
aI0
aI0
aI0
aI0
aI0
aI0
aI0
aI0
aI0
aI0
aI0
aI0
aI0
aI0
aI0
aI0
aI0
aI0
aI0
aI0
aI0
aI0
aI0
aI0
aI0
aI0
aI0
aI0
aI0
aI0
aI0
aI0
aI0
aI0
aI0
aI0
aI0
aI0
aI0
aI0
aI0
aI0
aI0
aI0
aI0
aI0
aI0
aI0
aI0
aI0
aI0
aI0
aI0
aI0
aI0
aI0
aI0
aI0
aI0
aI0
aI0
aI0
aI0
aI0
aI0
aI0
aI0
aI0
aI0
aI0
aI0
aI0
aI0
aI0
aI0
aI0
aI0
aI0
aI0
aI0
aI0
aI0
aI0
aI0
aI0
aI0
aI0
aI0
aI0
aI0
aI0
aI0
aI0
aI0
aI0
aI0
aI0
aI0
aI0
aI0
aI0
aI0
aI0
aI0
aI0
aI0
aI0
aI0
aI0
aI0
aI0
aI0
aI0
aI0
aI0
aI0
aI0
aI0
aI0
aI0
aI0
aI0
aI0
aI0
aI0
aI0
aI0
aI0
aI0
aI0
aI0
aI0
aI0
aI0
aI0
aI0
aI0
aI0
aI0
aI0
aI0
aI0
aI0
aI0
aI0
aI0
aI0
aI0
aI0
aI0
aI0
aI0
aI0
aI0
aI0
aI0
aI0
aI0
aI0
aI0
aI0
aI0
aI0
aI0
aI0
aI0
aI0
aI0
aI0
aI0
aI0
aI0
aI0
aI0
aI0
aI0
aI0
aI0
aI0
aI0
aI0
aI0
aI0
aI0
aI0
aI0
aI0
aI0
aI0
aI0
aI0
aI0
aI0
aI0
aI0
aI0
aI0
aI0
aI0
aI0
aI0
aI0
aI0
aI0
aI0
aI0
aI0
aI0
aI0
aI0
aI0
aI0
aI0
aI0
aI0
aI0
atp1765
b.